(dp0
S'grapevine'
p1
(lp2
I0
aF3.0
asS'cinch'
p3
(lp4
I0
aF2.0
asS'codification'
p5
(lp6
F1.0
aF2.0
asS'dissolution'
p7
(lp8
I0
aF1.0
asS'declaration'
p9
(lp10
F1.0
aF3.0
asS'protest'
p11
(lp12
I0
aF14.0
asS'aegis'
p13
(lp14
I0
aF1.0
asS'upkeep'
p15
(lp16
I0
aF2.0
asS'welfare'
p17
(lp18
F1.0
aF3.0
asS'talks'
p19
(lp20
I0
aF1.0
asS'appetite'
p21
(lp22
I0
aF4.0
asS'settlement'
p23
(lp24
F12.0
aF2.0
asS'reasoning'
p25
(lp26
I0
aF5.0
asS'aggression'
p27
(lp28
F3.0
aF1.0
asS'looking'
p29
(lp30
I0
aF1.0
asS'jumping_up_and_down'
p31
(lp32
I0
aF1.0
asS'wedding_ceremony'
p33
(lp34
I0
aF1.0
asS'pardon'
p35
(lp36
F1.0
aF1.0
asS'hunting'
p37
(lp38
I0
aF14.0
asS'electricity'
p39
(lp40
F6.0
aF8.0
asS'chatter'
p41
(lp42
I0
aF1.0
asS'watch'
p43
(lp44
F14.0
aF1.0
asS'television_program'
p45
(lp46
I0
aF2.0
asS'staining'
p47
(lp48
I0
aF33.0
asS'removal'
p49
(lp50
I0
aF9.0
asS'dance'
p51
(lp52
F17.0
aF1.0
asS'trial_and_error'
p53
(lp54
I0
aF2.0
asS'investigation'
p55
(lp56
I0
aF22.0
asS'powder_technique'
p57
(lp58
I0
aF1.0
asS'iodination'
p59
(lp60
I0
aF2.0
asS'teaching'
p61
(lp62
F3.0
aF10.0
asS'set'
p63
(lp64
F43.0
aF7.0
asS'field_of_operation'
p65
(lp66
I0
aF1.0
asS'shaving'
p67
(lp68
F1.0
aF3.0
asS'sinking'
p69
(lp70
I0
aF1.0
asS'homer'
p71
(lp72
F1.0
aF12.0
asS'shielding'
p73
(lp74
F2.0
aF3.0
asS'rescue'
p75
(lp76
I0
aF3.0
asS'retraining'
p77
(lp78
I0
aF1.0
asS'sitting'
p79
(lp80
I0
aF2.0
asS'world_series'
p81
(lp82
I0
aF5.0
asS'counterproposal'
p83
(lp84
I0
aF1.0
asS'hunting_expedition'
p85
(lp86
I0
aF2.0
asS'social_control'
p87
(lp88
I0
aF1.0
asS'resistance'
p89
(lp90
I0
aF11.0
asS'procession'
p91
(lp92
I0
aF2.0
asS'replication'
p93
(lp94
I0
aF1.0
asS'sermon'
p95
(lp96
I0
aF4.0
asS'worst'
p97
(lp98
I0
aF2.0
asS'gratification'
p99
(lp100
F2.0
aF1.0
asS'hatching'
p101
(lp102
I0
aF3.0
asS'fall'
p103
(lp104
F16.0
aF10.0
asS'vacationing'
p105
(lp106
I0
aF1.0
asS'radio_noise'
p107
(lp108
I0
aF2.0
asS'difference'
p109
(lp110
F93.0
aF18.0
asS'rehearing'
p111
(lp112
I0
aF1.0
asS'encounter'
p113
(lp114
I0
aF6.0
asS'pachinko'
p115
(lp116
I0
aF1.0
asS'washing'
p117
(lp118
I0
aF14.0
asS'progression'
p119
(lp120
F2.0
aF2.0
asS'impact'
p121
(lp122
I0
aF18.0
asS'evaluation'
p123
(lp124
F3.0
aF8.0
asS'industrialization'
p125
(lp126
I0
aF2.0
asS'laying'
p127
(lp128
I0
aF2.0
asS'base_hit'
p129
(lp130
I0
aF1.0
asS'work-study_program'
p131
(lp132
I0
aF1.0
asS'circuit'
p133
(lp134
F4.0
aF3.0
asS'piano_lesson'
p135
(lp136
I0
aF1.0
asS'intensification'
p137
(lp138
I0
aF2.0
asS'shouting'
p139
(lp140
F1.0
aF2.0
asS'table_tennis'
p141
(lp142
I0
aF1.0
asS'mah-jongg'
p143
(lp144
I0
aF1.0
asS'mistaking'
p145
(lp146
I0
aF1.0
asS'make-work'
p147
(lp148
I0
aF1.0
asS'throbbing'
p149
(lp150
I0
aF1.0
asS'economic_strangulation'
p151
(lp152
I0
aF1.0
asS'triumph'
p153
(lp154
F5.0
aF6.0
asS'flick'
p155
(lp156
I0
aF2.0
asS'force'
p157
(lp158
F61.0
aF25.0
asS'escalation'
p159
(lp160
I0
aF6.0
asS'lecturing'
p161
(lp162
I0
aF1.0
asS'maneuver'
p163
(lp164
I0
aF5.0
asS'appearance'
p165
(lp166
F15.0
aF7.0
asS'clinch'
p167
(lp168
I0
aF1.0
asS'request'
p169
(lp170
I0
aF14.0
asS'pulse'
p171
(lp172
I0
aF2.0
asS'holocaust'
p173
(lp174
I0
aF2.0
asS'approximation'
p175
(lp176
F1.0
aF3.0
asS'earned_run'
p177
(lp178
I0
aF1.0
asS'second'
p179
(lp180
F29.0
aF2.0
asS'party_game'
p181
(lp182
I0
aF1.0
asS'fractionation'
p183
(lp184
I0
aF4.0
asS'query'
p185
(lp186
I0
aF1.0
asS'disobedience'
p187
(lp188
I0
aF7.0
asS'flatus'
p189
(lp190
I0
aF2.0
asS'investment'
p191
(lp192
F5.0
aF7.0
asS'shining'
p193
(lp194
I0
aF1.0
asS'melioration'
p195
(lp196
I0
aF1.0
asS"governor's_race"
p197
(lp198
I0
aF1.0
asS'histrionics'
p199
(lp200
I0
aF1.0
asS'accreditation'
p201
(lp202
I0
aF7.0
asS'war_crime'
p203
(lp204
I0
aF1.0
asS'thunder'
p205
(lp206
I0
aF5.0
asS'specification'
p207
(lp208
I0
aF1.0
asS'cooking'
p209
(lp210
F1.0
aF9.0
asS'word_of_advice'
p211
(lp212
I0
aF1.0
asS'schism'
p213
(lp214
I0
aF1.0
asS'walkout'
p215
(lp216
I0
aF1.0
asS'plodding'
p217
(lp218
I0
aF1.0
asS'stoop'
p219
(lp220
I0
aF1.0
asS'birefringence'
p221
(lp222
I0
aF3.0
asS'version'
p223
(lp224
F8.0
aF7.0
asS'belching'
p225
(lp226
I0
aF1.0
asS'reconstruction'
p227
(lp228
F2.0
aF1.0
asS'conduct'
p229
(lp230
F3.0
aF3.0
asS'tribute'
p231
(lp232
I0
aF5.0
asS'racing'
p233
(lp234
I0
aF1.0
asS'contrast'
p235
(lp236
F28.0
aF10.0
asS'movement'
p237
(lp238
F8.0
aF39.0
asS'yearning'
p239
(lp240
I0
aF5.0
asS'crunch'
p241
(lp242
I0
aF1.0
asS'insinuation'
p243
(lp244
I0
aF4.0
asS'crouch'
p245
(lp246
I0
aF2.0
asS'slaughter'
p247
(lp248
I0
aF4.0
asS'depreciation'
p249
(lp250
F1.0
aF2.0
asS'accumulation'
p251
(lp252
F1.0
aF3.0
asS'glimpse'
p253
(lp254
I0
aF3.0
asS'vomiting'
p255
(lp256
I0
aF1.0
asS'refinement'
p257
(lp258
F1.0
aF1.0
asS'suicide'
p259
(lp260
I0
aF3.0
asS'pursuit'
p261
(lp262
F2.0
aF2.0
asS'plunker'
p263
(lp264
I0
aF1.0
asS'kissing'
p265
(lp266
I0
aF2.0
asS'path'
p267
(lp268
F10.0
aF10.0
asS'vapor_pressure'
p269
(lp270
I0
aF10.0
asS'respect'
p271
(lp272
F24.0
aF2.0
asS'tragedy'
p273
(lp274
F1.0
aF5.0
asS'tea_party'
p275
(lp276
I0
aF1.0
asS'celebration'
p277
(lp278
I0
aF5.0
asS'warm-up'
p279
(lp280
I0
aF1.0
asS'search'
p281
(lp282
I0
aF17.0
asS'back_circle'
p283
(lp284
I0
aF1.0
asS'electrolysis'
p285
(lp286
I0
aF1.0
asS'conviction'
p287
(lp288
F14.0
aF3.0
asS'counteroffensive'
p289
(lp290
I0
aF1.0
asS'inception'
p291
(lp292
I0
aF2.0
asS'gravitational_force'
p293
(lp294
I0
aF1.0
asS'study'
p295
(lp296
F39.0
aF87.0
asS'compliance'
p297
(lp298
I0
aF1.0
asS'weaning'
p299
(lp300
I0
aF1.0
asS'experience'
p301
(lp302
F98.0
aF27.0
asS'controversy'
p303
(lp304
I0
aF8.0
asS'pinning'
p305
(lp306
I0
aF1.0
asS'magnetic_attraction'
p307
(lp308
I0
aF1.0
asS'bestowal'
p309
(lp310
I0
aF1.0
asS'breakdown'
p311
(lp312
I0
aF5.0
asS'advertising'
p313
(lp314
F7.0
aF6.0
asS'smoke'
p315
(lp316
F8.0
aF3.0
asS'permit'
p317
(lp318
F6.0
aF1.0
asS'action'
p319
(lp320
F20.0
aF108.0
asS'sealing'
p321
(lp322
I0
aF1.0
asS'redevelopment'
p323
(lp324
I0
aF1.0
asS're-creation'
p325
(lp326
I0
aF1.0
asS'cancellation'
p327
(lp328
I0
aF2.0
asS'water-skiing'
p329
(lp330
I0
aF1.0
asS'criticism'
p331
(lp332
F5.0
aF6.0
asS'regimentation'
p333
(lp334
I0
aF1.0
asS'projection'
p335
(lp336
F3.0
aF10.0
asS'classification'
p337
(lp338
F7.0
aF8.0
asS'gulp'
p339
(lp340
I0
aF2.0
asS'caravan'
p341
(lp342
I0
aF1.0
asS'enactment'
p343
(lp344
I0
aF2.0
asS'home_movie'
p345
(lp346
I0
aF1.0
asS'schooling'
p347
(lp348
I0
aF1.0
asS'startup'
p349
(lp350
I0
aF1.0
asS'place-kicking'
p351
(lp352
I0
aF3.0
asS'sanction'
p353
(lp354
I0
aF3.0
asS'congratulation'
p355
(lp356
I0
aF3.0
asS'glance'
p357
(lp358
I0
aF14.0
asS'somersaulting'
p359
(lp360
I0
aF1.0
asS'estimate'
p361
(lp362
F3.0
aF19.0
asS'experimentation'
p363
(lp364
I0
aF7.0
asS'plot'
p365
(lp366
F11.0
aF9.0
asS'inculcation'
p367
(lp368
I0
aF1.0
asS'base_on_balls'
p369
(lp370
I0
aF3.0
asS'variation'
p371
(lp372
F3.0
aF32.0
asS'revelation'
p373
(lp374
F2.0
aF4.0
asS'negative'
p375
(lp376
I0
aF1.0
asS'lessening'
p377
(lp378
I0
aF5.0
asS'world_war_i'
p379
(lp380
I0
aF2.0
asS'magnification'
p381
(lp382
I0
aF1.0
asS'splash'
p383
(lp384
I0
aF1.0
asS'music'
p385
(lp386
F61.0
aF2.0
asS'pitching'
p387
(lp388
I0
aF7.0
asS'spike'
p389
(lp390
F1.0
aF2.0
asS'strike'
p391
(lp392
I0
aF9.0
asS'injury'
p393
(lp394
F13.0
aF7.0
asS'refueling'
p395
(lp396
I0
aF1.0
asS'hydrostatic_head'
p397
(lp398
I0
aF1.0
asS'cold_weather'
p399
(lp400
I0
aF3.0
asS'preparation'
p401
(lp402
F5.0
aF16.0
asS'restraint'
p403
(lp404
F3.0
aF5.0
asS'modification'
p405
(lp406
F1.0
aF2.0
asS'paperwork'
p407
(lp408
I0
aF1.0
asS'weakening'
p409
(lp410
I0
aF1.0
asS'air_defense'
p411
(lp412
I0
aF1.0
asS'vicious_circle'
p413
(lp414
I0
aF3.0
asS'remark'
p415
(lp416
I0
aF27.0
asS'electric_discharge'
p417
(lp418
I0
aF1.0
asS'emission'
p419
(lp420
I0
aF6.0
asS'award'
p421
(lp422
F10.0
aF26.0
asS'matter_of_course'
p423
(lp424
I0
aF1.0
asS'excuse'
p425
(lp426
I0
aF7.0
asS'domination'
p427
(lp428
F1.0
aF6.0
asS'discrepancy'
p429
(lp430
F5.0
aF3.0
asS'impulse'
p431
(lp432
F7.0
aF7.0
asS'setback'
p433
(lp434
I0
aF3.0
asS'suction'
p435
(lp436
I0
aF1.0
asS'doom'
p437
(lp438
I0
aF2.0
asS'striving'
p439
(lp440
I0
aF3.0
asS'unemployment_compensation'
p441
(lp442
I0
aF1.0
asS'corpuscular-radiation_pressure'
p443
(lp444
I0
aF1.0
asS'church'
p445
(lp446
F119.0
aF10.0
asS'intake'
p447
(lp448
I0
aF5.0
asS'word'
p449
(lp450
F118.0
aF23.0
asS'scrutin_uninominal_voting_system'
p451
(lp452
I0
aF1.0
asS'presentation'
p453
(lp454
F5.0
aF10.0
asS'phrasing'
p455
(lp456
I0
aF1.0
asS'work'
p457
(lp458
F95.0
aF113.0
asS'eclipse'
p459
(lp460
I0
aF2.0
asS'advocacy'
p461
(lp462
I0
aF1.0
asS'foreign_exchange'
p463
(lp464
I0
aF1.0
asS'slice'
p465
(lp466
F6.0
aF1.0
asS'caveat'
p467
(lp468
I0
aF1.0
asS'blooming'
p469
(lp470
I0
aF3.0
asS'diurnal_variation'
p471
(lp472
I0
aF3.0
asS'centralization'
p473
(lp474
I0
aF1.0
asS'example'
p475
(lp476
F62.0
aF2.0
asS'endeavor'
p477
(lp478
I0
aF4.0
asS'quarrel'
p479
(lp480
I0
aF1.0
asS'sensuality'
p481
(lp482
I0
aF2.0
asS'president'
p483
(lp484
F30.0
aF1.0
asS'launching'
p485
(lp486
I0
aF1.0
asS'stirring'
p487
(lp488
I0
aF1.0
asS'back_door'
p489
(lp490
I0
aF1.0
asS'forecasting'
p491
(lp492
I0
aF1.0
asS'scan'
p493
(lp494
I0
aF3.0
asS'credit_system'
p495
(lp496
I0
aF1.0
asS'climax'
p497
(lp498
F2.0
aF3.0
asS'artillery'
p499
(lp500
F3.0
aF1.0
asS'zodiacal_light'
p501
(lp502
I0
aF2.0
asS'brooding'
p503
(lp504
F1.0
aF1.0
asS'collision'
p505
(lp506
I0
aF6.0
asS'rise'
p507
(lp508
F3.0
aF12.0
asS'caution'
p509
(lp510
F2.0
aF2.0
asS'imitation'
p511
(lp512
F15.0
aF4.0
asS'want'
p513
(lp514
F4.0
aF1.0
asS'appointment'
p515
(lp516
F2.0
aF6.0
asS'story'
p517
(lp518
F57.0
aF1.0
asS'association'
p519
(lp520
F15.0
aF5.0
asS'offspring'
p521
(lp522
F3.0
aF1.0
asS'parcel'
p523
(lp524
I0
aF1.0
asS'homicide'
p525
(lp526
I0
aF1.0
asS'information'
p527
(lp528
F144.0
aF1.0
asS'answer'
p529
(lp530
I0
aF58.0
asS'end'
p531
(lp532
F111.0
aF20.0
asS'recovery'
p533
(lp534
I0
aF7.0
asS'life_cycle'
p535
(lp536
I0
aF1.0
asS'technology'
p537
(lp538
F2.0
aF12.0
asS'travel'
p539
(lp540
I0
aF8.0
asS'comfort'
p541
(lp542
F6.0
aF4.0
asS'feature'
p543
(lp544
F49.0
aF2.0
asS'cleansing'
p545
(lp546
I0
aF1.0
asS'march'
p547
(lp548
F19.0
aF4.0
asS'stupidity'
p549
(lp550
F2.0
aF1.0
asS'playback'
p551
(lp552
I0
aF1.0
asS'bunt'
p553
(lp554
I0
aF1.0
asS'hop'
p555
(lp556
I0
aF1.0
asS'bioassay'
p557
(lp558
I0
aF2.0
asS'minuet'
p559
(lp560
I0
aF1.0
asS'head'
p561
(lp562
F176.0
aF3.0
asS'agglutination'
p563
(lp564
I0
aF4.0
asS'resignation'
p565
(lp566
F2.0
aF1.0
asS'opposition'
p567
(lp568
F6.0
aF7.0
asS'air_wave'
p569
(lp570
I0
aF1.0
asS'bleat'
p571
(lp572
I0
aF1.0
asS'tide'
p573
(lp574
I0
aF5.0
asS'abstraction'
p575
(lp576
F7.0
aF5.0
asS'description'
p577
(lp578
I0
aF26.0
asS'communicating'
p579
(lp580
I0
aF1.0
asS'modulation'
p581
(lp582
F3.0
aF2.0
asS'uprising'
p583
(lp584
I0
aF1.0
asS'advice'
p585
(lp586
I0
aF15.0
asS'lag'
p587
(lp588
I0
aF1.0
asS'indignity'
p589
(lp590
I0
aF1.0
asS'loyalty'
p591
(lp592
F7.0
aF1.0
asS'bad_luck'
p593
(lp594
F1.0
aF2.0
asS'wrong'
p595
(lp596
F3.0
aF2.0
asS'conditioned_reflex'
p597
(lp598
I0
aF2.0
asS'hackwork'
p599
(lp600
I0
aF1.0
asS'blood'
p601
(lp602
F39.0
aF1.0
asS'fracas'
p603
(lp604
I0
aF1.0
asS'coming'
p605
(lp606
I0
aF3.0
asS'invasion'
p607
(lp608
I0
aF4.0
asS'road_show'
p609
(lp610
I0
aF1.0
asS'undoing'
p611
(lp612
I0
aF1.0
asS'flutter'
p613
(lp614
I0
aF1.0
asS'idle_talk'
p615
(lp616
I0
aF1.0
asS'specialization'
p617
(lp618
I0
aF4.0
asS'summarization'
p619
(lp620
I0
aF1.0
asS'purchase'
p621
(lp622
F3.0
aF8.0
asS'entry'
p623
(lp624
F14.0
aF5.0
asS'attempt'
p625
(lp626
I0
aF47.0
asS'athletics'
p627
(lp628
I0
aF1.0
asS'third'
p629
(lp630
F9.0
aF4.0
asS'blockade'
p631
(lp632
I0
aF8.0
asS'ablation'
p633
(lp634
I0
aF2.0
asS'rooting'
p635
(lp636
I0
aF2.0
asS'revolt'
p637
(lp638
I0
aF4.0
asS'departure'
p639
(lp640
I0
aF9.0
asS'volleyball'
p641
(lp642
I0
aF1.0
asS'purging'
p643
(lp644
I0
aF1.0
asS'protestation'
p645
(lp646
I0
aF1.0
asS'dissension'
p647
(lp648
I0
aF1.0
asS'broadcasting'
p649
(lp650
I0
aF2.0
asS'haste'
p651
(lp652
F4.0
aF1.0
asS'jam_session'
p653
(lp654
I0
aF1.0
asS'plumbing'
p655
(lp656
F2.0
aF1.0
asS'secretary_of_the_interior'
p657
(lp658
I0
aF18.0
asS'first'
p659
(lp660
F15.0
aF1.0
asS'dream'
p661
(lp662
F35.0
aF3.0
asS'order'
p663
(lp664
F30.0
aF17.0
asS'wind'
p665
(lp666
I0
aF21.0
asS'operations'
p667
(lp668
I0
aF1.0
asS'restriction'
p669
(lp670
F5.0
aF3.0
asS'deference'
p671
(lp672
I0
aF1.0
asS'interpretation'
p673
(lp674
F12.0
aF4.0
asS'feedback'
p675
(lp676
I0
aF2.0
asS'office'
p677
(lp678
F88.0
aF6.0
asS'consent'
p679
(lp680
I0
aF7.0
asS'concurrence'
p681
(lp682
I0
aF2.0
asS'misdemeanor'
p683
(lp684
I0
aF1.0
asS'mission'
p685
(lp686
F18.0
aF20.0
asS'kickoff'
p687
(lp688
F1.0
aF2.0
asS'distortion'
p689
(lp690
F1.0
aF3.0
asS'redefinition'
p691
(lp692
I0
aF2.0
asS'attitude'
p693
(lp694
F65.0
aF1.0
asS'paper'
p695
(lp696
F50.0
aF21.0
asS'destruction'
p697
(lp698
I0
aF11.0
asS'bishopry'
p699
(lp700
I0
aF1.0
asS'pretext'
p701
(lp702
I0
aF1.0
asS'avenue'
p703
(lp704
I0
aF1.0
asS'drinking'
p705
(lp706
I0
aF16.0
asS'wickedness'
p707
(lp708
I0
aF1.0
asS'bombing'
p709
(lp710
I0
aF2.0
asS'craft'
p711
(lp712
F1.0
aF3.0
asS'position'
p713
(lp714
F74.0
aF17.0
asS'fit'
p715
(lp716
F3.0
aF2.0
asS'hypocrisy'
p717
(lp718
F1.0
aF1.0
asS'soaking'
p719
(lp720
I0
aF1.0
asS'bosom'
p721
(lp722
F2.0
aF1.0
asS'writing'
p723
(lp724
F12.0
aF10.0
asS'vending'
p725
(lp726
I0
aF1.0
asS'absence'
p727
(lp728
F23.0
aF8.0
asS'production'
p729
(lp730
F18.0
aF38.0
asS'golfing'
p731
(lp732
I0
aF1.0
asS'speech'
p733
(lp734
F8.0
aF14.0
asS'pass'
p735
(lp736
F4.0
aF11.0
asS'deformation'
p737
(lp738
I0
aF3.0
asS'shear'
p739
(lp740
I0
aF21.0
asS'gravitational_attraction'
p741
(lp742
I0
aF1.0
asS'return'
p743
(lp744
F33.0
aF14.0
asS'vandalism'
p745
(lp746
I0
aF1.0
asS'remission'
p747
(lp748
I0
aF1.0
asS'wake'
p749
(lp750
I0
aF4.0
asS'jerking'
p751
(lp752
I0
aF1.0
asS'workout'
p753
(lp754
I0
aF6.0
asS'din'
p755
(lp756
I0
aF1.0
asS'incline_bench_press'
p757
(lp758
I0
aF2.0
asS'ring-around-a- rosy'
p759
(lp760
I0
aF1.0
asS'break'
p761
(lp762
F1.0
aF8.0
asS'renunciation'
p763
(lp764
I0
aF1.0
asS'bang'
p765
(lp766
F3.0
aF4.0
asS'tenancy'
p767
(lp768
I0
aF2.0
asS'penetration'
p769
(lp770
F1.0
aF3.0
asS'preservation'
p771
(lp772
I0
aF1.0
asS'outbreak'
p773
(lp774
I0
aF1.0
asS'misuse'
p775
(lp776
I0
aF1.0
asS'urge'
p777
(lp778
F2.0
aF2.0
asS'field_trial'
p779
(lp780
I0
aF2.0
asS'huddle'
p781
(lp782
I0
aF2.0
asS'bad_weather'
p783
(lp784
I0
aF2.0
asS'double'
p785
(lp786
I0
aF12.0
asS'designation'
p787
(lp788
F2.0
aF1.0
asS'debunking'
p789
(lp790
I0
aF1.0
asS'tampering'
p791
(lp792
I0
aF1.0
asS'debut'
p793
(lp794
I0
aF5.0
asS'slavery'
p795
(lp796
F8.0
aF1.0
asS'presupposition'
p797
(lp798
I0
aF2.0
asS'dyeing'
p799
(lp800
I0
aF1.0
asS'immunoelectrophoresis'
p801
(lp802
I0
aF1.0
asS'ventilation'
p803
(lp804
F1.0
aF3.0
asS'floodhead'
p805
(lp806
I0
aF1.0
asS'pains'
p807
(lp808
I0
aF3.0
asS'extravaganza'
p809
(lp810
I0
aF1.0
asS'repayment'
p811
(lp812
I0
aF1.0
asS'treason'
p813
(lp814
I0
aF4.0
asS'monsoon'
p815
(lp816
I0
aF2.0
asS'ducking'
p817
(lp818
I0
aF1.0
asS'internal_combustion'
p819
(lp820
I0
aF1.0
asS'trial_balloon'
p821
(lp822
I0
aF1.0
asS'enforcement'
p823
(lp824
I0
aF3.0
asS'luck'
p825
(lp826
F5.0
aF6.0
asS'development'
p827
(lp828
F10.0
aF119.0
asS'harm'
p829
(lp830
F4.0
aF3.0
asS'observance'
p831
(lp832
I0
aF1.0
asS'daily_variation'
p833
(lp834
I0
aF1.0
asS'assemblage'
p835
(lp836
F1.0
aF1.0
asS'series'
p837
(lp838
F42.0
aF9.0
asS'volcanic_eruption'
p839
(lp840
I0
aF1.0
asS'displacement'
p841
(lp842
I0
aF4.0
asS'leyte'
p843
(lp844
I0
aF2.0
asS'solution'
p845
(lp846
F26.0
aF8.0
asS'bickering'
p847
(lp848
I0
aF1.0
asS'literature'
p849
(lp850
F71.0
aF2.0
asS'trading'
p851
(lp852
I0
aF2.0
asS'expedition'
p853
(lp854
F3.0
aF8.0
asS'measurement'
p855
(lp856
I0
aF52.0
asS'ripple'
p857
(lp858
I0
aF5.0
asS'carry'
p859
(lp860
I0
aF1.0
asS'operation'
p861
(lp862
F12.0
aF39.0
asS'thing'
p863
(lp864
F183.0
aF90.0
asS'whir'
p865
(lp866
I0
aF1.0
asS'event'
p867
(lp868
F6.0
aF60.0
asS'turn'
p869
(lp870
F7.0
aF14.0
asS'leave'
p871
(lp872
F2.0
aF1.0
asS'misfortune'
p873
(lp874
F3.0
aF3.0
asS'business_activity'
p875
(lp876
I0
aF1.0
asS'desertion'
p877
(lp878
I0
aF1.0
asS'research'
p879
(lp880
I0
aF52.0
asS'first_step'
p881
(lp882
I0
aF8.0
asS'acting'
p883
(lp884
I0
aF5.0
asS'piece'
p885
(lp886
F49.0
aF4.0
asS'safety'
p887
(lp888
F11.0
aF1.0
asS'amplitude'
p889
(lp890
I0
aF6.0
asS'shipment'
p891
(lp892
F3.0
aF3.0
asS'check'
p893
(lp894
F26.0
aF2.0
asS'medicine'
p895
(lp896
F8.0
aF3.0
asS'surprise'
p897
(lp898
F12.0
aF5.0
asS'compounding'
p899
(lp900
I0
aF1.0
asS'issue'
p901
(lp902
F26.0
aF1.0
asS'outburst'
p903
(lp904
F2.0
aF2.0
asS'folk_dance'
p905
(lp906
I0
aF1.0
asS'assist'
p907
(lp908
I0
aF2.0
asS'turning'
p909
(lp910
I0
aF4.0
asS'merchandising'
p911
(lp912
I0
aF2.0
asS'instrument_flying'
p913
(lp914
I0
aF1.0
asS'resume'
p915
(lp916
I0
aF4.0
asS'veto'
p917
(lp918
I0
aF2.0
asS'routine'
p919
(lp920
F1.0
aF12.0
asS'succession'
p921
(lp922
F4.0
aF1.0
asS'revenge'
p923
(lp924
I0
aF2.0
asS'advertising_campaign'
p925
(lp926
I0
aF1.0
asS'sinning'
p927
(lp928
I0
aF1.0
asS'difficulty'
p929
(lp930
F25.0
aF17.0
asS'reason'
p931
(lp932
F78.0
aF29.0
asS'untruth'
p933
(lp934
I0
aF1.0
asS'formation'
p935
(lp936
F10.0
aF8.0
asS'rain'
p937
(lp938
F5.0
aF25.0
asS'murmur'
p939
(lp940
F1.0
aF1.0
asS'pantomime'
p941
(lp942
I0
aF1.0
asS'detecting'
p943
(lp944
I0
aF1.0
asS'automation'
p945
(lp946
I0
aF2.0
asS'reproach'
p947
(lp948
I0
aF1.0
asS'plowing'
p949
(lp950
I0
aF2.0
asS'bash'
p951
(lp952
I0
aF1.0
asS'publication'
p953
(lp954
F6.0
aF5.0
asS'definition'
p955
(lp956
F10.0
aF11.0
asS'logging'
p957
(lp958
I0
aF1.0
asS'service'
p959
(lp960
F6.0
aF39.0
asS'repulsive_force'
p961
(lp962
I0
aF2.0
asS'legal_system'
p963
(lp964
I0
aF1.0
asS'reappearance'
p965
(lp966
I0
aF1.0
asS'rehabilitation'
p967
(lp968
I0
aF9.0
asS'ritual'
p969
(lp970
I0
aF10.0
asS'on_the_road'
p971
(lp972
I0
aF1.0
asS'diversion'
p973
(lp974
I0
aF4.0
asS'dispersal'
p975
(lp976
I0
aF1.0
asS'round'
p977
(lp978
F10.0
aF2.0
asS'liaison'
p979
(lp980
F1.0
aF1.0
asS'braggadocio'
p981
(lp982
I0
aF1.0
asS'threat'
p983
(lp984
F13.0
aF8.0
asS'anecdote'
p985
(lp986
I0
aF7.0
asS'consequence'
p987
(lp988
F2.0
aF21.0
asS'heartbeat'
p989
(lp990
I0
aF2.0
asS'contingency'
p991
(lp992
I0
aF1.0
asS'flip'
p993
(lp994
I0
aF1.0
asS'habit'
p995
(lp996
F7.0
aF5.0
asS'beggary'
p997
(lp998
I0
aF1.0
asS'prizefight'
p999
(lp1000
I0
aF1.0
asS'engagement'
p1001
(lp1002
F2.0
aF5.0
asS'hero'
p1003
(lp1004
F15.0
aF10.0
asS'knocking'
p1005
(lp1006
I0
aF1.0
asS'number'
p1007
(lp1008
F201.0
aF5.0
asS'miscalculation'
p1009
(lp1010
I0
aF2.0
asS'hearing'
p1011
(lp1012
F5.0
aF11.0
asS'juncture'
p1013
(lp1014
I0
aF1.0
asS'wash'
p1015
(lp1016
F8.0
aF3.0
asS'curtain_raiser'
p1017
(lp1018
I0
aF1.0
asS'revolution'
p1019
(lp1020
I0
aF11.0
asS'chromatography'
p1021
(lp1022
I0
aF5.0
asS'chopper'
p1023
(lp1024
I0
aF1.0
asS'densitometry'
p1025
(lp1026
I0
aF1.0
asS'cocktail_party'
p1027
(lp1028
I0
aF5.0
asS'naval_blockade'
p1029
(lp1030
I0
aF4.0
asS'wages'
p1031
(lp1032
I0
aF2.0
asS'miss'
p1033
(lp1034
F4.0
aF1.0
asS'stage'
p1035
(lp1036
F59.0
aF8.0
asS'whole-word_method'
p1037
(lp1038
I0
aF1.0
asS'feeding'
p1039
(lp1040
I0
aF15.0
asS'guess'
p1041
(lp1042
F2.0
aF1.0
asS'basketball'
p1043
(lp1044
I0
aF3.0
asS'breaking_away'
p1045
(lp1046
I0
aF2.0
asS'dark_field_illumination'
p1047
(lp1048
I0
aF1.0
asS'utilization'
p1049
(lp1050
I0
aF3.0
asS'introduction'
p1051
(lp1052
F3.0
aF3.0
asS'neutralization'
p1053
(lp1054
I0
aF2.0
asS'concussion'
p1055
(lp1056
I0
aF1.0
asS'seduction'
p1057
(lp1058
I0
aF1.0
asS'coccidioidomycosis'
p1059
(lp1060
I0
aF1.0
asS'obedience'
p1061
(lp1062
I0
aF2.0
asS'tango'
p1063
(lp1064
I0
aF2.0
asS'boating'
p1065
(lp1066
I0
aF2.0
asS'shiver'
p1067
(lp1068
I0
aF1.0
asS'compromise'
p1069
(lp1070
F1.0
aF4.0
asS'fumble'
p1071
(lp1072
I0
aF1.0
asS'statement'
p1073
(lp1074
F12.0
aF51.0
asS'upshot'
p1075
(lp1076
I0
aF1.0
asS'scheme'
p1077
(lp1078
I0
aF10.0
asS'genesis'
p1079
(lp1080
I0
aF3.0
asS'malingering'
p1081
(lp1082
I0
aF1.0
asS'inflow'
p1083
(lp1084
I0
aF1.0
asS'circus'
p1085
(lp1086
F1.0
aF1.0
asS'elaboration'
p1087
(lp1088
I0
aF2.0
asS'collapse'
p1089
(lp1090
F3.0
aF3.0
asS'sexual_activity'
p1091
(lp1092
I0
aF1.0
asS'bouncing'
p1093
(lp1094
I0
aF2.0
asS'tool'
p1095
(lp1096
F15.0
aF5.0
asS'acquiescence'
p1097
(lp1098
F3.0
aF1.0
asS'importunity'
p1099
(lp1100
I0
aF1.0
asS'appreciation'
p1101
(lp1102
F6.0
aF2.0
asS'assumption'
p1103
(lp1104
F28.0
aF1.0
asS'looking_at'
p1105
(lp1106
I0
aF3.0
asS'proton_magnetic_resonance'
p1107
(lp1108
I0
aF1.0
asS'vindication'
p1109
(lp1110
I0
aF2.0
asS'evil'
p1111
(lp1112
F7.0
aF6.0
asS'recourse'
p1113
(lp1114
I0
aF2.0
asS'translation'
p1115
(lp1116
F4.0
aF4.0
asS'flattery'
p1117
(lp1118
I0
aF2.0
asS'crawl'
p1119
(lp1120
I0
aF1.0
asS'stocking'
p1121
(lp1122
F4.0
aF1.0
asS'thawing'
p1123
(lp1124
I0
aF1.0
asS'diffusion'
p1125
(lp1126
F1.0
aF7.0
asS'mercy'
p1127
(lp1128
F2.0
aF4.0
asS'financing'
p1129
(lp1130
I0
aF5.0
asS'farming'
p1131
(lp1132
I0
aF12.0
asS'outlay'
p1133
(lp1134
I0
aF1.0
asS'romp'
p1135
(lp1136
I0
aF1.0
asS'waterproofing'
p1137
(lp1138
I0
aF1.0
asS'recruitment'
p1139
(lp1140
I0
aF6.0
asS'hike'
p1141
(lp1142
I0
aF2.0
asS'instruction'
p1143
(lp1144
F11.0
aF7.0
asS'transvestitism'
p1145
(lp1146
I0
aF1.0
asS'annihilation'
p1147
(lp1148
I0
aF1.0
asS'fraternisation'
p1149
(lp1150
I0
aF1.0
asS'invention'
p1151
(lp1152
F12.0
aF3.0
asS'flame'
p1153
(lp1154
I0
aF4.0
asS'implication'
p1155
(lp1156
F6.0
aF10.0
asS'design'
p1157
(lp1158
F15.0
aF16.0
asS'acquisition'
p1159
(lp1160
I0
aF11.0
asS'letting_down'
p1161
(lp1162
I0
aF1.0
asS'bridge'
p1163
(lp1164
F10.0
aF1.0
asS'swerve'
p1165
(lp1166
I0
aF1.0
asS'fashion'
p1167
(lp1168
F10.0
aF6.0
asS'acculturation'
p1169
(lp1170
I0
aF1.0
asS'contraception'
p1171
(lp1172
I0
aF4.0
asS'emanation'
p1173
(lp1174
F1.0
aF1.0
asS'footnote'
p1175
(lp1176
I0
aF1.0
asS'sex_act'
p1177
(lp1178
I0
aF3.0
asS'infiltration'
p1179
(lp1180
I0
aF5.0
asS'electrical_shock'
p1181
(lp1182
I0
aF1.0
asS'semester_hour'
p1183
(lp1184
I0
aF3.0
asS'selling'
p1185
(lp1186
I0
aF9.0
asS'contest'
p1187
(lp1188
I0
aF9.0
asS'rap'
p1189
(lp1190
I0
aF1.0
asS'decline'
p1191
(lp1192
F2.0
aF5.0
asS'arousal'
p1193
(lp1194
I0
aF1.0
asS'discontinuance'
p1195
(lp1196
I0
aF1.0
asS'ion_exchange'
p1197
(lp1198
I0
aF1.0
asS'menarche'
p1199
(lp1200
I0
aF4.0
asS'conditioned_reaction'
p1201
(lp1202
I0
aF7.0
asS'polymerization'
p1203
(lp1204
I0
aF3.0
asS'founding'
p1205
(lp1206
I0
aF2.0
asS'lie'
p1207
(lp1208
I0
aF6.0
asS'pianism'
p1209
(lp1210
I0
aF1.0
asS'functioning'
p1211
(lp1212
I0
aF3.0
asS'alibi'
p1213
(lp1214
I0
aF2.0
asS'dancing'
p1215
(lp1216
I0
aF6.0
asS'electric_shock'
p1217
(lp1218
I0
aF1.0
asS'pilot_program'
p1219
(lp1220
I0
aF1.0
asS'self-flagellation'
p1221
(lp1222
I0
aF1.0
asS'self-defense'
p1223
(lp1224
I0
aF1.0
asS'click'
p1225
(lp1226
I0
aF2.0
asS'onset'
p1227
(lp1228
I0
aF42.0
asS'state_of_matter'
p1229
(lp1230
I0
aF1.0
asS'child_care'
p1231
(lp1232
I0
aF1.0
asS'conscription'
p1233
(lp1234
I0
aF1.0
asS'analogy'
p1235
(lp1236
F5.0
aF4.0
asS'deepening'
p1237
(lp1238
I0
aF1.0
asS'command'
p1239
(lp1240
F9.0
aF18.0
asS'ambuscade'
p1241
(lp1242
I0
aF1.0
asS'surface_tension'
p1243
(lp1244
I0
aF4.0
asS'reelection'
p1245
(lp1246
I0
aF1.0
asS'rally'
p1247
(lp1248
F2.0
aF1.0
asS'play'
p1249
(lp1250
F33.0
aF26.0
asS'finding'
p1251
(lp1252
F1.0
aF19.0
asS'inference'
p1253
(lp1254
I0
aF6.0
asS'infliction'
p1255
(lp1256
I0
aF2.0
asS'cost_analysis'
p1257
(lp1258
I0
aF1.0
asS'outcome'
p1259
(lp1260
I0
aF18.0
asS'eruption'
p1261
(lp1262
I0
aF1.0
asS'equipping'
p1263
(lp1264
I0
aF1.0
asS'civil_war'
p1265
(lp1266
I0
aF11.0
asS'anatomy'
p1267
(lp1268
F6.0
aF1.0
asS'rumble'
p1269
(lp1270
I0
aF1.0
asS'affirmation'
p1271
(lp1272
I0
aF1.0
asS'plan'
p1273
(lp1274
F16.0
aF52.0
asS'social_security'
p1275
(lp1276
I0
aF2.0
asS'disenfranchisement'
p1277
(lp1278
I0
aF2.0
asS'custom'
p1279
(lp1280
F3.0
aF4.0
asS'autopsy'
p1281
(lp1282
I0
aF1.0
asS'catastrophe'
p1283
(lp1284
F1.0
aF3.0
asS'parting'
p1285
(lp1286
I0
aF2.0
asS'putout'
p1287
(lp1288
I0
aF1.0
asS'wetting'
p1289
(lp1290
I0
aF1.0
asS'demand'
p1291
(lp1292
F1.0
aF40.0
asS'tool-and-die_work'
p1293
(lp1294
I0
aF2.0
asS'episode'
p1295
(lp1296
F3.0
aF4.0
asS'observation'
p1297
(lp1298
F2.0
aF32.0
asS'musical_comedy'
p1299
(lp1300
I0
aF4.0
asS'stretching'
p1301
(lp1302
I0
aF1.0
asS'outflow'
p1303
(lp1304
I0
aF1.0
asS'employment'
p1305
(lp1306
F9.0
aF16.0
asS'cover'
p1307
(lp1308
F20.0
aF5.0
asS'hot_war'
p1309
(lp1310
I0
aF1.0
asS'giving'
p1311
(lp1312
I0
aF1.0
asS'interior_design'
p1313
(lp1314
F1.0
aF14.0
asS'succor'
p1315
(lp1316
I0
aF1.0
asS'diversionary_attack'
p1317
(lp1318
I0
aF1.0
asS'clean'
p1319
(lp1320
I0
aF1.0
asS'enterprise'
p1321
(lp1322
F5.0
aF8.0
asS'voting'
p1323
(lp1324
I0
aF8.0
asS'blend'
p1325
(lp1326
I0
aF2.0
asS'run_batted_in'
p1327
(lp1328
I0
aF1.0
asS'contact_sport'
p1329
(lp1330
I0
aF1.0
asS'boredom'
p1331
(lp1332
I0
aF7.0
asS'discontent'
p1333
(lp1334
I0
aF2.0
asS'roleplaying'
p1335
(lp1336
I0
aF16.0
asS'golf'
p1337
(lp1338
I0
aF9.0
asS'phenomenon'
p1339
(lp1340
I0
aF30.0
asS'grievance'
p1341
(lp1342
F1.0
aF1.0
asS'wailing'
p1343
(lp1344
I0
aF1.0
asS'manipulation'
p1345
(lp1346
I0
aF1.0
asS'column_chromatography'
p1347
(lp1348
I0
aF1.0
asS'responsibility'
p1349
(lp1350
F3.0
aF15.0
asS'hugging'
p1351
(lp1352
I0
aF1.0
asS'lurch'
p1353
(lp1354
I0
aF1.0
asS'rediscovery'
p1355
(lp1356
I0
aF1.0
asS'readjustment'
p1357
(lp1358
I0
aF1.0
asS'session'
p1359
(lp1360
F6.0
aF17.0
asS'relation'
p1361
(lp1362
F23.0
aF2.0
asS'piezoelectric_effect'
p1363
(lp1364
I0
aF1.0
asS'freight'
p1365
(lp1366
F4.0
aF1.0
asS'bodybuilding'
p1367
(lp1368
I0
aF1.0
asS'night_game'
p1369
(lp1370
I0
aF3.0
asS'pilgrimage'
p1371
(lp1372
I0
aF2.0
asS'medical_care'
p1373
(lp1374
I0
aF1.0
asS'completion'
p1375
(lp1376
I0
aF45.0
asS'foraging'
p1377
(lp1378
I0
aF1.0
asS'layout'
p1379
(lp1380
F1.0
aF1.0
asS'shuffling'
p1381
(lp1382
I0
aF1.0
asS'implementation'
p1383
(lp1384
I0
aF3.0
asS'magnetic_force'
p1385
(lp1386
I0
aF5.0
asS'guidance'
p1387
(lp1388
F8.0
aF4.0
asS'sentence'
p1389
(lp1390
F21.0
aF5.0
asS'pacification'
p1391
(lp1392
I0
aF1.0
asS'assertion'
p1393
(lp1394
I0
aF3.0
asS'touchdown'
p1395
(lp1396
I0
aF4.0
asS'institution'
p1397
(lp1398
F29.0
aF1.0
asS'sacrilege'
p1399
(lp1400
I0
aF2.0
asS'brush_fire'
p1401
(lp1402
I0
aF1.0
asS'wrestling'
p1403
(lp1404
I0
aF1.0
asS'examination'
p1405
(lp1406
I0
aF16.0
asS'rebuff'
p1407
(lp1408
I0
aF1.0
asS'rhythm_method'
p1409
(lp1410
I0
aF1.0
asS'photochemical_reaction'
p1411
(lp1412
I0
aF2.0
asS'circle'
p1413
(lp1414
F24.0
aF2.0
asS'stumping'
p1415
(lp1416
I0
aF1.0
asS'scrubbing'
p1417
(lp1418
I0
aF1.0
asS'ordeal'
p1419
(lp1420
I0
aF1.0
asS'desorption'
p1421
(lp1422
I0
aF1.0
asS'jazz_festival'
p1423
(lp1424
I0
aF2.0
asS'closing_off'
p1425
(lp1426
I0
aF1.0
asS'downpour'
p1427
(lp1428
I0
aF2.0
asS'permission'
p1429
(lp1430
I0
aF4.0
asS'ringing'
p1431
(lp1432
I0
aF2.0
asS'biopsy'
p1433
(lp1434
I0
aF3.0
asS'road_game'
p1435
(lp1436
I0
aF1.0
asS'leisure'
p1437
(lp1438
I0
aF2.0
asS'strut'
p1439
(lp1440
I0
aF1.0
asS'remedy'
p1441
(lp1442
F1.0
aF2.0
asS'double_play'
p1443
(lp1444
I0
aF1.0
asS'repose'
p1445
(lp1446
I0
aF1.0
asS'reversal'
p1447
(lp1448
I0
aF1.0
asS'wedding'
p1449
(lp1450
I0
aF3.0
asS'report'
p1451
(lp1452
F59.0
aF12.0
asS'reclining'
p1453
(lp1454
I0
aF1.0
asS'panel_discussion'
p1455
(lp1456
I0
aF1.0
asS'auto_limitation'
p1457
(lp1458
I0
aF1.0
asS'bat'
p1459
(lp1460
F7.0
aF1.0
asS'appeal'
p1461
(lp1462
F8.0
aF12.0
asS'bar'
p1463
(lp1464
F20.0
aF1.0
asS'sailing'
p1465
(lp1466
I0
aF4.0
asS'stratification'
p1467
(lp1468
I0
aF1.0
asS'self-preservation'
p1469
(lp1470
I0
aF1.0
asS'alteration'
p1471
(lp1472
I0
aF6.0
asS'microscopy'
p1473
(lp1474
I0
aF1.0
asS'sojourn'
p1475
(lp1476
I0
aF1.0
asS'eye-beaming'
p1477
(lp1478
I0
aF1.0
asS'stead'
p1479
(lp1480
F1.0
aF2.0
asS'architecture'
p1481
(lp1482
F4.0
aF1.0
asS'withdrawal'
p1483
(lp1484
I0
aF3.0
asS'adherence'
p1485
(lp1486
I0
aF2.0
asS'conversation'
p1487
(lp1488
I0
aF18.0
asS'crucifixion'
p1489
(lp1490
I0
aF1.0
asS'precaution'
p1491
(lp1492
F2.0
aF5.0
asS'severing'
p1493
(lp1494
I0
aF1.0
asS'roundhouse'
p1495
(lp1496
F1.0
aF1.0
asS'voltage'
p1497
(lp1498
I0
aF10.0
asS'fault'
p1499
(lp1500
F4.0
aF4.0
asS'duty'
p1501
(lp1502
F2.0
aF23.0
asS'artillery_fire'
p1503
(lp1504
I0
aF1.0
asS'art'
p1505
(lp1506
F59.0
aF15.0
asS'disaster'
p1507
(lp1508
F6.0
aF6.0
asS'fair'
p1509
(lp1510
I0
aF1.0
asS'transpiration'
p1511
(lp1512
I0
aF3.0
asS'excavation'
p1513
(lp1514
I0
aF2.0
asS'penalty'
p1515
(lp1516
F2.0
aF5.0
asS'testing'
p1517
(lp1518
I0
aF11.0
asS'crackle'
p1519
(lp1520
I0
aF1.0
asS'sex'
p1521
(lp1522
F7.0
aF14.0
asS'detection'
p1523
(lp1524
F4.0
aF2.0
asS'culture'
p1525
(lp1526
F35.0
aF1.0
asS'defense'
p1527
(lp1528
F4.0
aF25.0
asS'migration'
p1529
(lp1530
I0
aF2.0
asS'damnation'
p1531
(lp1532
I0
aF1.0
asS'portrait'
p1533
(lp1534
F6.0
aF2.0
asS'news_show'
p1535
(lp1536
I0
aF1.0
asS'best'
p1537
(lp1538
I0
aF4.0
asS'blast'
p1539
(lp1540
I0
aF3.0
asS'weight_gaining'
p1541
(lp1542
I0
aF1.0
asS'project'
p1543
(lp1544
I0
aF24.0
asS'coaching_job'
p1545
(lp1546
I0
aF1.0
asS'combustion'
p1547
(lp1548
I0
aF2.0
asS'capacity'
p1549
(lp1550
F29.0
aF4.0
asS'storm_cloud'
p1551
(lp1552
I0
aF1.0
asS'giving_up'
p1553
(lp1554
I0
aF1.0
asS'movie'
p1555
(lp1556
I0
aF26.0
asS'thuggee'
p1557
(lp1558
I0
aF1.0
asS'dramatics'
p1559
(lp1560
I0
aF1.0
asS'pay_cut'
p1561
(lp1562
I0
aF1.0
asS'registration'
p1563
(lp1564
I0
aF7.0
asS'biochemical_mechanism'
p1565
(lp1566
I0
aF1.0
asS'orgy'
p1567
(lp1568
I0
aF2.0
asS'olympics'
p1569
(lp1570
I0
aF2.0
asS'cooperation'
p1571
(lp1572
I0
aF8.0
asS'apologia'
p1573
(lp1574
I0
aF1.0
asS'lighting'
p1575
(lp1576
F5.0
aF1.0
asS'imprimatur'
p1577
(lp1578
I0
aF1.0
asS'avoidance'
p1579
(lp1580
I0
aF4.0
asS'tolerance'
p1581
(lp1582
F2.0
aF1.0
asS'inauguration'
p1583
(lp1584
I0
aF1.0
asS'compliment'
p1585
(lp1586
I0
aF4.0
asS'discovery'
p1587
(lp1588
F4.0
aF17.0
asS'discipline'
p1589
(lp1590
F6.0
aF1.0
asS'breakaway'
p1591
(lp1592
I0
aF1.0
asS'stiffening'
p1593
(lp1594
I0
aF1.0
asS'venture'
p1595
(lp1596
F2.0
aF4.0
asS'disarmament'
p1597
(lp1598
I0
aF1.0
asS'oxidation'
p1599
(lp1600
I0
aF20.0
asS'operating_procedure'
p1601
(lp1602
I0
aF1.0
asS'attention'
p1603
(lp1604
F57.0
aF14.0
asS'cards'
p1605
(lp1606
I0
aF1.0
asS'incident'
p1607
(lp1608
I0
aF18.0
asS'disturbance'
p1609
(lp1610
F2.0
aF6.0
asS'censorship'
p1611
(lp1612
I0
aF1.0
asS'defiance'
p1613
(lp1614
F2.0
aF2.0
asS'leg_curling'
p1615
(lp1616
I0
aF1.0
asS'news'
p1617
(lp1618
F32.0
aF3.0
asS'flowering'
p1619
(lp1620
I0
aF3.0
asS'prelude'
p1621
(lp1622
I0
aF1.0
asS'roller'
p1623
(lp1624
I0
aF1.0
asS'dissociation'
p1625
(lp1626
I0
aF3.0
asS'pity'
p1627
(lp1628
F2.0
aF1.0
asS'squeeze'
p1629
(lp1630
I0
aF1.0
asS'accident'
p1631
(lp1632
I0
aF12.0
asS'sanitation'
p1633
(lp1634
F1.0
aF1.0
asS'carelessness'
p1635
(lp1636
F1.0
aF1.0
asS'blood_transfusion'
p1637
(lp1638
I0
aF1.0
asS'family_planning'
p1639
(lp1640
I0
aF6.0
asS'bolt'
p1641
(lp1642
F2.0
aF2.0
asS'heating'
p1643
(lp1644
I0
aF4.0
asS'merging'
p1645
(lp1646
I0
aF1.0
asS'protection'
p1647
(lp1648
F6.0
aF18.0
asS'fermentation'
p1649
(lp1650
F1.0
aF1.0
asS'buzz'
p1651
(lp1652
I0
aF2.0
asS'contribution'
p1653
(lp1654
F6.0
aF15.0
asS'expense'
p1655
(lp1656
F26.0
aF4.0
asS'escapade'
p1657
(lp1658
I0
aF1.0
asS'inaugural'
p1659
(lp1660
I0
aF1.0
asS'electric_power'
p1661
(lp1662
I0
aF1.0
asS'load'
p1663
(lp1664
F13.0
aF1.0
asS'birth_prevention'
p1665
(lp1666
I0
aF1.0
asS'separation'
p1667
(lp1668
F4.0
aF4.0
asS'supply'
p1669
(lp1670
F21.0
aF6.0
asS'allusion'
p1671
(lp1672
I0
aF6.0
asS'clerking'
p1673
(lp1674
I0
aF1.0
asS'political_campaign'
p1675
(lp1676
I0
aF3.0
asS'allegiance'
p1677
(lp1678
I0
aF1.0
asS'seizure'
p1679
(lp1680
I0
aF4.0
asS'coincidence'
p1681
(lp1682
I0
aF6.0
asS'debacle'
p1683
(lp1684
I0
aF1.0
asS'initiative'
p1685
(lp1686
F5.0
aF4.0
asS'shutdown'
p1687
(lp1688
I0
aF5.0
asS'blending'
p1689
(lp1690
I0
aF1.0
asS'humming'
p1691
(lp1692
I0
aF2.0
asS'preferment'
p1693
(lp1694
I0
aF1.0
asS'conference'
p1695
(lp1696
F13.0
aF2.0
asS'broadening'
p1697
(lp1698
I0
aF3.0
asS'complication'
p1699
(lp1700
I0
aF3.0
asS'publishing'
p1701
(lp1702
I0
aF1.0
asS'reconsideration'
p1703
(lp1704
I0
aF1.0
asS'arrest'
p1705
(lp1706
I0
aF5.0
asS'union'
p1707
(lp1708
F29.0
aF1.0
asS'acceptance'
p1709
(lp1710
F5.0
aF4.0
asS'referendum'
p1711
(lp1712
I0
aF1.0
asS'drafting'
p1713
(lp1714
I0
aF2.0
asS'rattle'
p1715
(lp1716
I0
aF2.0
asS'reduction'
p1717
(lp1718
I0
aF20.0
asS'mitigation'
p1719
(lp1720
I0
aF1.0
asS'initiation'
p1721
(lp1722
I0
aF3.0
asS'mutiny'
p1723
(lp1724
I0
aF2.0
asS'moneymaking'
p1725
(lp1726
I0
aF1.0
asS'contraction'
p1727
(lp1728
I0
aF1.0
asS'meeting'
p1729
(lp1730
F34.0
aF4.0
asS'counterattack'
p1731
(lp1732
I0
aF1.0
asS'pm'
p1733
(lp1734
I0
aF6.0
asS'dialogue'
p1735
(lp1736
F4.0
aF3.0
asS'flight'
p1737
(lp1738
F15.0
aF8.0
asS'retrospect'
p1739
(lp1740
I0
aF1.0
asS'counting'
p1741
(lp1742
I0
aF2.0
asS'fire'
p1743
(lp1744
F8.0
aF35.0
asS'overthrow'
p1745
(lp1746
I0
aF1.0
asS'gas'
p1747
(lp1748
F22.0
aF15.0
asS'cruelty'
p1749
(lp1750
F1.0
aF3.0
asS'joke'
p1751
(lp1752
F7.0
aF2.0
asS'follow-through'
p1753
(lp1754
I0
aF1.0
asS'usage'
p1755
(lp1756
I0
aF10.0
asS'joust'
p1757
(lp1758
I0
aF1.0
asS'confinement'
p1759
(lp1760
I0
aF2.0
asS'determination'
p1761
(lp1762
F3.0
aF7.0
asS'prostitution'
p1763
(lp1764
I0
aF2.0
asS'bidding'
p1765
(lp1766
I0
aF1.0
asS'ad_campaign'
p1767
(lp1768
I0
aF1.0
asS'tug-of-war'
p1769
(lp1770
I0
aF2.0
asS'assigning'
p1771
(lp1772
I0
aF1.0
asS'respiration'
p1773
(lp1774
I0
aF1.0
asS'commerce'
p1775
(lp1776
I0
aF10.0
asS'handling'
p1777
(lp1778
I0
aF5.0
asS'conception'
p1779
(lp1780
F12.0
aF6.0
asS'look'
p1781
(lp1782
F26.0
aF12.0
asS'vaccinating'
p1783
(lp1784
I0
aF1.0
asS'solid'
p1785
(lp1786
F14.0
aF1.0
asS'enrollment'
p1787
(lp1788
I0
aF1.0
asS'bill'
p1789
(lp1790
F32.0
aF1.0
asS'budget'
p1791
(lp1792
F4.0
aF3.0
asS'kick_up'
p1793
(lp1794
I0
aF1.0
asS'air'
p1795
(lp1796
F59.0
aF3.0
asS'aim'
p1797
(lp1798
F15.0
aF3.0
asS'electrical_work'
p1799
(lp1800
I0
aF1.0
asS'caress'
p1801
(lp1802
I0
aF1.0
asS'match'
p1803
(lp1804
F6.0
aF1.0
asS'behavior'
p1805
(lp1806
F16.0
aF30.0
asS'error'
p1807
(lp1808
F10.0
aF16.0
asS'fun'
p1809
(lp1810
F1.0
aF7.0
asS'aid'
p1811
(lp1812
F15.0
aF9.0
asS'voice'
p1813
(lp1814
F102.0
aF8.0
asS'reunion'
p1815
(lp1816
F1.0
aF1.0
asS'picturing'
p1817
(lp1818
I0
aF1.0
asS'mistake'
p1819
(lp1820
F4.0
aF10.0
asS'liveliness'
p1821
(lp1822
I0
aF1.0
asS'face_saving'
p1823
(lp1824
I0
aF1.0
asS'dictum'
p1825
(lp1826
I0
aF2.0
asS'inundation'
p1827
(lp1828
I0
aF1.0
asS'backing'
p1829
(lp1830
F1.0
aF2.0
asS'feast'
p1831
(lp1832
F1.0
aF2.0
asS'explanation'
p1833
(lp1834
F8.0
aF26.0
asS'slave_trade'
p1835
(lp1836
I0
aF1.0
asS'ambition'
p1837
(lp1838
F2.0
aF8.0
asS'underachievement'
p1839
(lp1840
I0
aF3.0
asS'letdown'
p1841
(lp1842
I0
aF1.0
asS'shame'
p1843
(lp1844
F4.0
aF1.0
asS'assault'
p1845
(lp1846
F1.0
aF3.0
asS'biological_warfare'
p1847
(lp1848
I0
aF2.0
asS'triple'
p1849
(lp1850
I0
aF3.0
asS'conditioner'
p1851
(lp1852
I0
aF1.0
asS'plunge'
p1853
(lp1854
I0
aF1.0
asS'leaving'
p1855
(lp1856
I0
aF1.0
asS'concentration'
p1857
(lp1858
F32.0
aF6.0
asS'chase'
p1859
(lp1860
I0
aF5.0
asS'primping'
p1861
(lp1862
I0
aF1.0
asS'expulsion'
p1863
(lp1864
I0
aF1.0
asS'memorial'
p1865
(lp1866
I0
aF1.0
asS'descent'
p1867
(lp1868
F2.0
aF3.0
asS'justification'
p1869
(lp1870
F3.0
aF2.0
asS'grant'
p1871
(lp1872
F6.0
aF5.0
asS'leg_extensor'
p1873
(lp1874
I0
aF1.0
asS'government'
p1875
(lp1876
F100.0
aF7.0
asS'wound'
p1877
(lp1878
F5.0
aF1.0
asS'wasting_time'
p1879
(lp1880
I0
aF1.0
asS'rebellion'
p1881
(lp1882
I0
aF5.0
asS'cumulus'
p1883
(lp1884
I0
aF1.0
asS'randomization'
p1885
(lp1886
I0
aF1.0
asS'indirection'
p1887
(lp1888
I0
aF1.0
asS'cytolysis'
p1889
(lp1890
I0
aF1.0
asS'split'
p1891
(lp1892
I0
aF5.0
asS'offence'
p1893
(lp1894
I0
aF1.0
asS'field_sport'
p1895
(lp1896
I0
aF1.0
asS'long_haul'
p1897
(lp1898
I0
aF1.0
asS'indictment'
p1899
(lp1900
F4.0
aF1.0
asS'voting_system'
p1901
(lp1902
I0
aF1.0
asS'composition'
p1903
(lp1904
F11.0
aF2.0
asS'conflict'
p1905
(lp1906
F8.0
aF6.0
asS'exertion'
p1907
(lp1908
I0
aF1.0
asS'calculation'
p1909
(lp1910
I0
aF8.0
asS'condemnation'
p1911
(lp1912
I0
aF5.0
asS'raid'
p1913
(lp1914
I0
aF3.0
asS'abolition'
p1915
(lp1916
I0
aF1.0
asS'maturation'
p1917
(lp1918
I0
aF3.0
asS'assignment'
p1919
(lp1920
F3.0
aF9.0
asS'swell'
p1921
(lp1922
F2.0
aF3.0
asS'aftereffect'
p1923
(lp1924
I0
aF1.0
asS'gravitational_field'
p1925
(lp1926
I0
aF1.0
asS'censure'
p1927
(lp1928
I0
aF1.0
asS'vocational_rehabilitation'
p1929
(lp1930
I0
aF3.0
asS'first_aid'
p1931
(lp1932
I0
aF1.0
asS'renaissance'
p1933
(lp1934
F5.0
aF1.0
asS'endothermic_reaction'
p1935
(lp1936
I0
aF2.0
asS'bel_canto'
p1937
(lp1938
I0
aF1.0
asS'cleaning'
p1939
(lp1940
I0
aF13.0
asS'ownership'
p1941
(lp1942
F4.0
aF2.0
asS'resonance'
p1943
(lp1944
F1.0
aF8.0
asS'imposition'
p1945
(lp1946
I0
aF2.0
asS'calcification'
p1947
(lp1948
I0
aF1.0
asS'mass_murder'
p1949
(lp1950
I0
aF1.0
asS'cycle'
p1951
(lp1952
F7.0
aF3.0
asS'task'
p1953
(lp1954
I0
aF30.0
asS'intrusion'
p1955
(lp1956
I0
aF3.0
asS'dent'
p1957
(lp1958
I0
aF1.0
asS'shooting'
p1959
(lp1960
I0
aF22.0
asS'co-optation'
p1961
(lp1962
I0
aF8.0
asS'field_goal'
p1963
(lp1964
I0
aF2.0
asS'open_sesame'
p1965
(lp1966
I0
aF1.0
asS'analysis'
p1967
(lp1968
F2.0
aF50.0
asS'theology'
p1969
(lp1970
F15.0
aF1.0
asS'windfall'
p1971
(lp1972
I0
aF1.0
asS'stillness'
p1973
(lp1974
F2.0
aF1.0
asS'contact'
p1975
(lp1976
F3.0
aF33.0
asS'services'
p1977
(lp1978
I0
aF29.0
asS'massage'
p1979
(lp1980
I0
aF1.0
asS'landmark'
p1981
(lp1982
F1.0
aF1.0
asS'organization'
p1983
(lp1984
F50.0
aF3.0
asS'abandonment'
p1985
(lp1986
I0
aF4.0
asS'musical'
p1987
(lp1988
I0
aF2.0
asS'prevention'
p1989
(lp1990
I0
aF18.0
asS'carrying_into_action'
p1991
(lp1992
I0
aF1.0
asS'scouring'
p1993
(lp1994
I0
aF2.0
asS'coup'
p1995
(lp1996
I0
aF2.0
asS'chore'
p1997
(lp1998
I0
aF7.0
asS'salvo'
p1999
(lp2000
I0
aF2.0
asS'perpetration'
p2001
(lp2002
I0
aF1.0
asS'yen'
p2003
(lp2004
I0
aF1.0
asS'misconstruction'
p2005
(lp2006
F1.0
aF1.0
asS'starting'
p2007
(lp2008
I0
aF3.0
asS'sequestration'
p2009
(lp2010
I0
aF1.0
asS'chemical_reaction'
p2011
(lp2012
I0
aF1.0
asS'tenting'
p2013
(lp2014
I0
aF1.0
asS'narrow_escape'
p2015
(lp2016
I0
aF1.0
asS'thanks'
p2017
(lp2018
F8.0
aF2.0
asS'stunt'
p2019
(lp2020
I0
aF2.0
asS'electroshock_therapy'
p2021
(lp2022
I0
aF1.0
asS'love'
p2023
(lp2024
F44.0
aF1.0
asS'yes'
p2025
(lp2026
I0
aF15.0
asS'wile'
p2027
(lp2028
I0
aF1.0
asS'rushing'
p2029
(lp2030
I0
aF5.0
asS'demythologization'
p2031
(lp2032
I0
aF6.0
asS'rundown'
p2033
(lp2034
I0
aF1.0
asS'waxing'
p2035
(lp2036
I0
aF1.0
asS'impetus'
p2037
(lp2038
I0
aF1.0
asS'retirement'
p2039
(lp2040
F9.0
aF1.0
asS'campaign'
p2041
(lp2042
I0
aF16.0
asS'vibration'
p2043
(lp2044
I0
aF1.0
asS'admission'
p2045
(lp2046
F1.0
aF8.0
asS'falsity'
p2047
(lp2048
F1.0
aF1.0
asS'character'
p2049
(lp2050
F43.0
aF10.0
asS'exercising'
p2051
(lp2052
I0
aF1.0
asS'thumping'
p2053
(lp2054
I0
aF1.0
asS'pinball'
p2055
(lp2056
I0
aF1.0
asS'spread'
p2057
(lp2058
F6.0
aF3.0
asS'affinity'
p2059
(lp2060
I0
aF1.0
asS'location'
p2061
(lp2062
F26.0
aF4.0
asS'depravity'
p2063
(lp2064
F3.0
aF1.0
asS'snap'
p2065
(lp2066
I0
aF1.0
asS'consideration'
p2067
(lp2068
F12.0
aF18.0
asS'playing'
p2069
(lp2070
I0
aF12.0
asS'plasma'
p2071
(lp2072
F5.0
aF5.0
asS'transformation'
p2073
(lp2074
I0
aF3.0
asS'unloading'
p2075
(lp2076
I0
aF2.0
asS'trimming'
p2077
(lp2078
I0
aF1.0
asS'desire'
p2079
(lp2080
F11.0
aF21.0
asS'suffocation'
p2081
(lp2082
I0
aF1.0
asS'clutches'
p2083
(lp2084
I0
aF1.0
asS'elevation'
p2085
(lp2086
F1.0
aF2.0
asS'recreation'
p2087
(lp2088
I0
aF22.0
asS'sloganeering'
p2089
(lp2090
I0
aF1.0
asS'knock'
p2091
(lp2092
F1.0
aF2.0
asS'hint'
p2093
(lp2094
F1.0
aF1.0
asS'showing'
p2095
(lp2096
F1.0
aF1.0
asS'credit'
p2097
(lp2098
F11.0
aF10.0
asS'exhibition'
p2099
(lp2100
F4.0
aF5.0
asS'emigration'
p2101
(lp2102
I0
aF1.0
asS'growl'
p2103
(lp2104
I0
aF1.0
asS'game'
p2105
(lp2106
F7.0
aF76.0
asS'jibe'
p2107
(lp2108
I0
aF1.0
asS'opener'
p2109
(lp2110
I0
aF3.0
asS'birth'
p2111
(lp2112
F7.0
aF3.0
asS'promotion_system'
p2113
(lp2114
I0
aF1.0
asS'shading'
p2115
(lp2116
F1.0
aF1.0
asS'emergence'
p2117
(lp2118
I0
aF2.0
asS'antiredeposition'
p2119
(lp2120
I0
aF1.0
asS'knuckleball'
p2121
(lp2122
I0
aF1.0
asS'retreat'
p2123
(lp2124
I0
aF2.0
asS'electric_current'
p2125
(lp2126
I0
aF4.0
asS'adult_education'
p2127
(lp2128
I0
aF1.0
asS'anticipation'
p2129
(lp2130
F8.0
aF2.0
asS'brutality'
p2131
(lp2132
F2.0
aF1.0
asS'submission'
p2133
(lp2134
F3.0
aF1.0
asS'occlusion'
p2135
(lp2136
I0
aF1.0
asS'diffraction'
p2137
(lp2138
I0
aF1.0
asS'background'
p2139
(lp2140
F18.0
aF4.0
asS'strife'
p2141
(lp2142
F2.0
aF1.0
asS'flux'
p2143
(lp2144
F18.0
aF5.0
asS'response'
p2145
(lp2146
F5.0
aF27.0
asS'human_death'
p2147
(lp2148
I0
aF1.0
asS'superlative'
p2149
(lp2150
I0
aF1.0
asS'sketch'
p2151
(lp2152
F14.0
aF8.0
asS'right'
p2153
(lp2154
F61.0
aF2.0
asS'falling_off'
p2155
(lp2156
I0
aF1.0
asS'parade'
p2157
(lp2158
F1.0
aF2.0
asS'deal'
p2159
(lp2160
F4.0
aF8.0
asS'dodging'
p2161
(lp2162
I0
aF1.0
asS'manual_labor'
p2163
(lp2164
I0
aF1.0
asS'creation'
p2165
(lp2166
F3.0
aF10.0
asS'gravy'
p2167
(lp2168
I0
aF1.0
asS'holdup'
p2169
(lp2170
I0
aF1.0
asS'revel'
p2171
(lp2172
I0
aF1.0
asS'meditation'
p2173
(lp2174
I0
aF1.0
asS'commonplace'
p2175
(lp2176
I0
aF1.0
asS'fingering'
p2177
(lp2178
I0
aF1.0
asS'election'
p2179
(lp2180
I0
aF68.0
asS'sight'
p2181
(lp2182
F25.0
aF2.0
asS'insistence'
p2183
(lp2184
I0
aF4.0
asS'second_coming'
p2185
(lp2186
I0
aF1.0
asS'tutorial'
p2187
(lp2188
I0
aF1.0
asS'fingerprinting'
p2189
(lp2190
I0
aF1.0
asS'sassing'
p2191
(lp2192
I0
aF1.0
asS'proceeding'
p2193
(lp2194
I0
aF1.0
asS'stylization'
p2195
(lp2196
I0
aF2.0
asS'grading'
p2197
(lp2198
I0
aF1.0
asS'notification'
p2199
(lp2200
I0
aF1.0
asS'decision'
p2201
(lp2202
F10.0
aF27.0
asS'prechlorination'
p2203
(lp2204
I0
aF1.0
asS'benefit'
p2205
(lp2206
F30.0
aF1.0
asS'educational_activity'
p2207
(lp2208
I0
aF1.0
asS'providence'
p2209
(lp2210
F7.0
aF2.0
asS'pounding'
p2211
(lp2212
I0
aF1.0
asS'fog'
p2213
(lp2214
F11.0
aF2.0
asS'exposition'
p2215
(lp2216
I0
aF2.0
asS'cloud'
p2217
(lp2218
F11.0
aF15.0
asS'gripe'
p2219
(lp2220
I0
aF1.0
asS'shenanigan'
p2221
(lp2222
I0
aF3.0
asS'beating'
p2223
(lp2224
I0
aF1.0
asS'collaboration'
p2225
(lp2226
I0
aF4.0
asS'participation'
p2227
(lp2228
I0
aF13.0
asS'medical_aid'
p2229
(lp2230
I0
aF1.0
asS'eating'
p2231
(lp2232
I0
aF3.0
asS'hallelujah'
p2233
(lp2234
I0
aF1.0
asS'marketing'
p2235
(lp2236
I0
aF31.0
asS'payment'
p2237
(lp2238
F32.0
aF23.0
asS'processing'
p2239
(lp2240
I0
aF2.0
asS'agreement'
p2241
(lp2242
F21.0
aF2.0
asS'chin-up'
p2243
(lp2244
I0
aF2.0
asS'step'
p2245
(lp2246
F15.0
aF41.0
asS'attendance'
p2247
(lp2248
I0
aF2.0
asS'confrontation'
p2249
(lp2250
I0
aF1.0
asS'substitution'
p2251
(lp2252
I0
aF1.0
asS'post'
p2253
(lp2254
F7.0
aF3.0
asS'word_of_god'
p2255
(lp2256
F1.0
aF2.0
asS'dilution'
p2257
(lp2258
F4.0
aF2.0
asS'rut'
p2259
(lp2260
F1.0
aF1.0
asS'roundup'
p2261
(lp2262
I0
aF2.0
asS'faith'
p2263
(lp2264
F30.0
aF1.0
asS'census'
p2265
(lp2266
I0
aF1.0
asS'rallying'
p2267
(lp2268
I0
aF1.0
asS'housekeeping'
p2269
(lp2270
I0
aF2.0
asS'tracing'
p2271
(lp2272
I0
aF9.0
asS'surrender'
p2273
(lp2274
F1.0
aF1.0
asS'careerism'
p2275
(lp2276
I0
aF1.0
asS'sacrament'
p2277
(lp2278
I0
aF1.0
asS'graduation'
p2279
(lp2280
I0
aF6.0
asS'trucking'
p2281
(lp2282
I0
aF1.0
asS'drama'
p2283
(lp2284
F14.0
aF5.0
asS'ambush'
p2285
(lp2286
I0
aF5.0
asS'barrage'
p2287
(lp2288
F2.0
aF1.0
asS'repulsion'
p2289
(lp2290
F1.0
aF2.0
asS'allotment'
p2291
(lp2292
F44.0
aF1.0
asS'reward'
p2293
(lp2294
F2.0
aF6.0
asS'grouping'
p2295
(lp2296
F5.0
aF1.0
asS'bath'
p2297
(lp2298
F6.0
aF2.0
asS'repair'
p2299
(lp2300
F1.0
aF5.0
asS'sob'
p2301
(lp2302
I0
aF2.0
asS'misbehavior'
p2303
(lp2304
I0
aF3.0
asS'facility'
p2305
(lp2306
F35.0
aF1.0
asS'magnetic_field'
p2307
(lp2308
I0
aF3.0
asS'conquest'
p2309
(lp2310
I0
aF3.0
asS'profession'
p2311
(lp2312
F7.0
aF5.0
asS'overprotection'
p2313
(lp2314
I0
aF1.0
asS'dissatisfaction'
p2315
(lp2316
I0
aF1.0
asS'unification'
p2317
(lp2318
I0
aF1.0
asS'rendering'
p2319
(lp2320
F1.0
aF3.0
asS'jet'
p2321
(lp2322
F2.0
aF1.0
asS'artifice'
p2323
(lp2324
I0
aF1.0
asS'gardening'
p2325
(lp2326
I0
aF1.0
asS'lesson'
p2327
(lp2328
F3.0
aF13.0
asS'reducing'
p2329
(lp2330
I0
aF1.0
asS'line_drive'
p2331
(lp2332
I0
aF1.0
asS'risk'
p2333
(lp2334
F4.0
aF2.0
asS'sightseeing'
p2335
(lp2336
I0
aF2.0
asS'backbend'
p2337
(lp2338
I0
aF2.0
asS'evangelism'
p2339
(lp2340
I0
aF3.0
asS'exhumation'
p2341
(lp2342
I0
aF1.0
asS'rustling'
p2343
(lp2344
I0
aF4.0
asS'bootlegging'
p2345
(lp2346
I0
aF1.0
asS'renewal'
p2347
(lp2348
I0
aF3.0
asS'spending'
p2349
(lp2350
I0
aF1.0
asS'support'
p2351
(lp2352
F9.0
aF29.0
asS'tennis'
p2353
(lp2354
I0
aF1.0
asS'legislation'
p2355
(lp2356
F10.0
aF2.0
asS'gift'
p2357
(lp2358
F12.0
aF2.0
asS'fast'
p2359
(lp2360
I0
aF1.0
asS'fight'
p2361
(lp2362
F2.0
aF18.0
asS'sound_wave'
p2363
(lp2364
I0
aF3.0
asS'consultation'
p2365
(lp2366
I0
aF4.0
asS'achievement'
p2367
(lp2368
I0
aF38.0
asS'way'
p2369
(lp2370
F220.0
aF85.0
asS'suit'
p2371
(lp2372
F12.0
aF3.0
asS'certification'
p2373
(lp2374
I0
aF3.0
asS'call'
p2375
(lp2376
F15.0
aF3.0
asS'water_development'
p2377
(lp2378
I0
aF1.0
asS'war'
p2379
(lp2380
F24.0
aF45.0
asS'case_load'
p2381
(lp2382
I0
aF1.0
asS'at-bat'
p2383
(lp2384
I0
aF1.0
asS'manufacture'
p2385
(lp2386
I0
aF2.0
asS'withholding'
p2387
(lp2388
F1.0
aF4.0
asS'insurrection'
p2389
(lp2390
I0
aF2.0
asS'communion'
p2391
(lp2392
I0
aF7.0
asS'revival'
p2393
(lp2394
I0
aF1.0
asS'molding'
p2395
(lp2396
I0
aF1.0
asS'frost'
p2397
(lp2398
F1.0
aF1.0
asS'slump'
p2399
(lp2400
I0
aF2.0
asS'tour_de_force'
p2401
(lp2402
I0
aF1.0
asS'helping_hand'
p2403
(lp2404
I0
aF1.0
asS'barrel_roll'
p2405
(lp2406
I0
aF2.0
asS'failure'
p2407
(lp2408
F5.0
aF27.0
asS'incorporation'
p2409
(lp2410
I0
aF1.0
asS'carping'
p2411
(lp2412
I0
aF1.0
asS'kick_in_the_butt'
p2413
(lp2414
I0
aF1.0
asS'injection'
p2415
(lp2416
I0
aF4.0
asS'safeguard'
p2417
(lp2418
I0
aF1.0
asS'raising'
p2419
(lp2420
I0
aF1.0
asS'continuance'
p2421
(lp2422
I0
aF2.0
asS'duel'
p2423
(lp2424
I0
aF1.0
asS'rejection'
p2425
(lp2426
F1.0
aF5.0
asS'commercialism'
p2427
(lp2428
I0
aF1.0
asS'scrimmage'
p2429
(lp2430
I0
aF1.0
asS'target_practice'
p2431
(lp2432
I0
aF1.0
asS'cha-cha'
p2433
(lp2434
I0
aF1.0
asS'piezoelectricity'
p2435
(lp2436
I0
aF1.0
asS'tuning'
p2437
(lp2438
I0
aF3.0
asS'reach'
p2439
(lp2440
F5.0
aF2.0
asS'original_sin'
p2441
(lp2442
I0
aF1.0
asS'exploration'
p2443
(lp2444
I0
aF11.0
asS'spectroscopy'
p2445
(lp2446
I0
aF3.0
asS'uppercut'
p2447
(lp2448
I0
aF1.0
asS'groove'
p2449
(lp2450
F1.0
aF1.0
asS'paean'
p2451
(lp2452
I0
aF1.0
asS'general_election'
p2453
(lp2454
I0
aF1.0
asS'aerial'
p2455
(lp2456
I0
aF1.0
asS'displeasure'
p2457
(lp2458
I0
aF2.0
asS'labor_market'
p2459
(lp2460
I0
aF1.0
asS'toss'
p2461
(lp2462
I0
aF5.0
asS'tournament'
p2463
(lp2464
I0
aF6.0
asS'influence'
p2465
(lp2466
F35.0
aF13.0
asS'news_conference'
p2467
(lp2468
I0
aF2.0
asS'sale'
p2469
(lp2470
F1.0
aF47.0
asS'postscript'
p2471
(lp2472
I0
aF1.0
asS'engineering'
p2473
(lp2474
F1.0
aF5.0
asS'skimming'
p2475
(lp2476
I0
aF1.0
asS'prayer'
p2477
(lp2478
F1.0
aF9.0
asS'accounting'
p2479
(lp2480
F1.0
aF2.0
asS'face'
p2481
(lp2482
F145.0
aF4.0
asS'commuting'
p2483
(lp2484
I0
aF2.0
asS'trip'
p2485
(lp2486
I0
aF30.0
asS'hail'
p2487
(lp2488
I0
aF3.0
asS'waste_of_time'
p2489
(lp2490
I0
aF1.0
asS'barometric_pressure'
p2491
(lp2492
I0
aF1.0
asS'self-destruction'
p2493
(lp2494
I0
aF1.0
asS'oversimplification'
p2495
(lp2496
I0
aF1.0
asS'paradox'
p2497
(lp2498
I0
aF3.0
asS'relay'
p2499
(lp2500
I0
aF1.0
asS'no'
p2501
(lp2502
F1.0
aF21.0
asS'objection'
p2503
(lp2504
I0
aF9.0
asS'fixing'
p2505
(lp2506
I0
aF1.0
asS'tumble'
p2507
(lp2508
I0
aF1.0
asS'idleness'
p2509
(lp2510
I0
aF1.0
asS'scrape'
p2511
(lp2512
I0
aF2.0
asS'power'
p2513
(lp2514
F90.0
aF13.0
asS'flood'
p2515
(lp2516
F4.0
aF5.0
asS'role'
p2517
(lp2518
F8.0
aF47.0
asS'recognition'
p2519
(lp2520
F16.0
aF1.0
asS'holding'
p2521
(lp2522
I0
aF1.0
asS'stroke'
p2523
(lp2524
I0
aF8.0
asS'spanish-american_war'
p2525
(lp2526
I0
aF1.0
asS'cheer'
p2527
(lp2528
I0
aF4.0
asS'discount'
p2529
(lp2530
I0
aF1.0
asS'nay'
p2531
(lp2532
I0
aF1.0
asS'erosion'
p2533
(lp2534
I0
aF1.0
asS'quickening'
p2535
(lp2536
I0
aF1.0
asS'revision'
p2537
(lp2538
F2.0
aF3.0
asS'brushing'
p2539
(lp2540
I0
aF2.0
asS'mobilization'
p2541
(lp2542
I0
aF1.0
asS'laying_on'
p2543
(lp2544
I0
aF1.0
asS'hamming'
p2545
(lp2546
I0
aF1.0
asS'refrigeration'
p2547
(lp2548
I0
aF2.0
asS'commentary'
p2549
(lp2550
I0
aF4.0
asS'understatement'
p2551
(lp2552
I0
aF1.0
asS'prosecution'
p2553
(lp2554
F1.0
aF3.0
asS'outreach'
p2555
(lp2556
I0
aF5.0
asS'falloff'
p2557
(lp2558
I0
aF2.0
asS'class'
p2559
(lp2560
F36.0
aF4.0
asS'drag'
p2561
(lp2562
I0
aF1.0
asS'journey'
p2563
(lp2564
I0
aF13.0
asS'overachievement'
p2565
(lp2566
I0
aF2.0
asS'persecution'
p2567
(lp2568
I0
aF3.0
asS'reservation'
p2569
(lp2570
F6.0
aF2.0
asS'song'
p2571
(lp2572
F45.0
aF2.0
asS'discount_business'
p2573
(lp2574
I0
aF1.0
asS'heroine'
p2575
(lp2576
I0
aF2.0
asS'abridgment'
p2577
(lp2578
I0
aF1.0
asS'pottery'
p2579
(lp2580
F10.0
aF1.0
asS'scouting'
p2581
(lp2582
I0
aF1.0
asS'radioactivity'
p2583
(lp2584
I0
aF1.0
asS'regime'
p2585
(lp2586
F2.0
aF1.0
asS'happening'
p2587
(lp2588
I0
aF1.0
asS'disruption'
p2589
(lp2590
I0
aF1.0
asS'ending'
p2591
(lp2592
F3.0
aF1.0
asS'mating'
p2593
(lp2594
I0
aF2.0
asS'outing'
p2595
(lp2596
I0
aF1.0
asS'thrombosis'
p2597
(lp2598
I0
aF1.0
asS'localization'
p2599
(lp2600
I0
aF2.0
asS'submarine_ball'
p2601
(lp2602
I0
aF1.0
asS'ramification'
p2603
(lp2604
I0
aF1.0
asS'reception'
p2605
(lp2606
F10.0
aF1.0
asS'time'
p2607
(lp2608
F312.0
aF201.0
asS'airplane_mechanics'
p2609
(lp2610
I0
aF1.0
asS'marvel'
p2611
(lp2612
I0
aF1.0
asS'enrichment'
p2613
(lp2614
I0
aF1.0
asS'essay'
p2615
(lp2616
F13.0
aF2.0
asS'advent'
p2617
(lp2618
I0
aF1.0
asS'irrigation'
p2619
(lp2620
I0
aF2.0
asS'church_service'
p2621
(lp2622
I0
aF1.0
asS'doctor'
p2623
(lp2624
F74.0
aF1.0
asS'rating'
p2625
(lp2626
F8.0
aF3.0
asS'horse_trading'
p2627
(lp2628
I0
aF1.0
asS'difference_of_opinion'
p2629
(lp2630
I0
aF2.0
asS'skit'
p2631
(lp2632
I0
aF1.0
asS'integration'
p2633
(lp2634
I0
aF24.0
asS'press_conference'
p2635
(lp2636
I0
aF1.0
asS'proposition'
p2637
(lp2638
F6.0
aF2.0
asS'elution'
p2639
(lp2640
I0
aF4.0
asS'computation'
p2641
(lp2642
I0
aF4.0
asS'battle'
p2643
(lp2644
I0
aF20.0
asS'gyration'
p2645
(lp2646
I0
aF1.0
asS'chair'
p2647
(lp2648
F35.0
aF2.0
asS'adjustment'
p2649
(lp2650
I0
aF9.0
asS'rot'
p2651
(lp2652
F1.0
aF1.0
asS'competition'
p2653
(lp2654
F17.0
aF8.0
asS'retention'
p2655
(lp2656
F1.0
aF8.0
asS'surface_noise'
p2657
(lp2658
I0
aF1.0
asS'ballet'
p2659
(lp2660
F1.0
aF4.0
asS'amplification'
p2661
(lp2662
I0
aF1.0
asS'sit-down'
p2663
(lp2664
I0
aF1.0
asS'integral'
p2665
(lp2666
I0
aF1.0
asS'filming'
p2667
(lp2668
I0
aF1.0
asS'pretense'
p2669
(lp2670
I0
aF1.0
asS'manumission'
p2671
(lp2672
I0
aF1.0
asS'spanish- american_war'
p2673
(lp2674
I0
aF1.0
asS'cortical_potential'
p2675
(lp2676
I0
aF1.0
asS'leap'
p2677
(lp2678
I0
aF4.0
asS'egg_laying'
p2679
(lp2680
I0
aF1.0
asS'passage'
p2681
(lp2682
F12.0
aF13.0
asS'recurrence'
p2683
(lp2684
I0
aF1.0
asS'charge'
p2685
(lp2686
F5.0
aF24.0
asS'large_order'
p2687
(lp2688
I0
aF1.0
asS'job'
p2689
(lp2690
F6.0
aF112.0
asS'rabbit_punch'
p2691
(lp2692
I0
aF1.0
asS'rhythm'
p2693
(lp2694
F15.0
aF1.0
asS'standing_ovation'
p2695
(lp2696
I0
aF1.0
asS'parimutuel'
p2697
(lp2698
I0
aF2.0
asS'breach'
p2699
(lp2700
I0
aF1.0
asS'housebreaking'
p2701
(lp2702
I0
aF1.0
asS'subscription'
p2703
(lp2704
F1.0
aF1.0
asS'ride'
p2705
(lp2706
I0
aF6.0
asS'denunciation'
p2707
(lp2708
I0
aF2.0
asS'division'
p2709
(lp2710
F13.0
aF5.0
asS'breathing'
p2711
(lp2712
I0
aF5.0
asS'misinterpretation'
p2713
(lp2714
I0
aF1.0
asS'sniveling'
p2715
(lp2716
I0
aF1.0
asS'imprisonment'
p2717
(lp2718
I0
aF3.0
asS'prayer_meeting'
p2719
(lp2720
I0
aF1.0
asS'consolidation'
p2721
(lp2722
I0
aF2.0
asS'polarization'
p2723
(lp2724
F1.0
aF3.0
asS'choice'
p2725
(lp2726
F13.0
aF8.0
asS'group_participation'
p2727
(lp2728
I0
aF1.0
asS'bustle'
p2729
(lp2730
I0
aF1.0
asS'promise'
p2731
(lp2732
F7.0
aF8.0
asS'rattling'
p2733
(lp2734
I0
aF2.0
asS'mixing'
p2735
(lp2736
I0
aF4.0
asS'trouble'
p2737
(lp2738
F35.0
aF33.0
asS'meteor_stream'
p2739
(lp2740
I0
aF1.0
asS'betterment'
p2741
(lp2742
I0
aF1.0
asS'ebbing'
p2743
(lp2744
I0
aF1.0
asS'framing'
p2745
(lp2746
I0
aF1.0
asS'incitement'
p2747
(lp2748
I0
aF4.0
asS'beginning'
p2749
(lp2750
F16.0
aF19.0
asS'transmission'
p2751
(lp2752
I0
aF6.0
asS'fadeout'
p2753
(lp2754
I0
aF1.0
asS'shock'
p2755
(lp2756
F6.0
aF4.0
asS'try'
p2757
(lp2758
I0
aF5.0
asS'rearing'
p2759
(lp2760
F1.0
aF1.0
asS'race'
p2761
(lp2762
F5.0
aF10.0
asS'verdict'
p2763
(lp2764
I0
aF1.0
asS'transmutation'
p2765
(lp2766
I0
aF3.0
asS'inspection'
p2767
(lp2768
I0
aF11.0
asS'challenge'
p2769
(lp2770
F5.0
aF2.0
asS'bonfire'
p2771
(lp2772
I0
aF3.0
asS'musical_theater'
p2773
(lp2774
I0
aF2.0
asS'logistics'
p2775
(lp2776
I0
aF1.0
asS'collusion'
p2777
(lp2778
I0
aF2.0
asS'accomplishment'
p2779
(lp2780
I0
aF5.0
asS'occurrence'
p2781
(lp2782
F3.0
aF29.0
asS'oscillation'
p2783
(lp2784
I0
aF2.0
asS'dealing'
p2785
(lp2786
I0
aF1.0
asS'encroachment'
p2787
(lp2788
I0
aF3.0
asS'flash_flood'
p2789
(lp2790
I0
aF1.0
asS'prediction'
p2791
(lp2792
I0
aF2.0
asS'crop'
p2793
(lp2794
I0
aF8.0
asS'affiliation'
p2795
(lp2796
F2.0
aF2.0
asS'adulation'
p2797
(lp2798
I0
aF1.0
asS'blowing'
p2799
(lp2800
I0
aF3.0
asS'prerequisite'
p2801
(lp2802
I0
aF1.0
asS'synergism'
p2803
(lp2804
I0
aF1.0
asS'takeoff'
p2805
(lp2806
I0
aF1.0
asS'run'
p2807
(lp2808
F1.0
aF28.0
asS'antitrust_case'
p2809
(lp2810
I0
aF1.0
asS'strategy'
p2811
(lp2812
I0
aF11.0
asS'leakage'
p2813
(lp2814
I0
aF1.0
asS'summation'
p2815
(lp2816
I0
aF1.0
asS'reclassification'
p2817
(lp2818
I0
aF1.0
asS'espionage'
p2819
(lp2820
I0
aF1.0
asS'curse'
p2821
(lp2822
F2.0
aF1.0
asS'snoring'
p2823
(lp2824
I0
aF2.0
asS'hydrogen_bond'
p2825
(lp2826
I0
aF4.0
asS'directive'
p2827
(lp2828
I0
aF1.0
asS'distension'
p2829
(lp2830
I0
aF1.0
asS'law_enforcement'
p2831
(lp2832
I0
aF4.0
asS'assistance'
p2833
(lp2834
F3.0
aF26.0
asS'slight'
p2835
(lp2836
I0
aF2.0
asS'primary_election'
p2837
(lp2838
I0
aF1.0
asS'havoc'
p2839
(lp2840
I0
aF2.0
asS'debate'
p2841
(lp2842
I0
aF17.0
asS'current'
p2843
(lp2844
F1.0
aF14.0
asS'experiment'
p2845
(lp2846
I0
aF78.0
asS'flowing'
p2847
(lp2848
I0
aF1.0
asS'reply'
p2849
(lp2850
I0
aF10.0
asS'occupation'
p2851
(lp2852
I0
aF9.0
asS'boost'
p2853
(lp2854
F1.0
aF3.0
asS'exercise'
p2855
(lp2856
I0
aF33.0
asS'squatting'
p2857
(lp2858
I0
aF2.0
asS'flash'
p2859
(lp2860
F5.0
aF3.0
asS'supporting'
p2861
(lp2862
I0
aF1.0
asS'proliferation'
p2863
(lp2864
I0
aF3.0
asS'explosion'
p2865
(lp2866
I0
aF6.0
asS'subterfuge'
p2867
(lp2868
I0
aF1.0
asS'digitalization'
p2869
(lp2870
I0
aF1.0
asS'exchange'
p2871
(lp2872
F1.0
aF22.0
asS'confirmation'
p2873
(lp2874
F4.0
aF1.0
asS'funeral'
p2875
(lp2876
I0
aF7.0
asS'correspondence_course'
p2877
(lp2878
I0
aF1.0
asS'punch'
p2879
(lp2880
I0
aF1.0
asS'attainment'
p2881
(lp2882
I0
aF2.0
asS'magnetism'
p2883
(lp2884
I0
aF6.0
asS'baseball'
p2885
(lp2886
F2.0
aF21.0
asS'healing'
p2887
(lp2888
I0
aF1.0
asS'preventive_medicine'
p2889
(lp2890
I0
aF1.0
asS'address'
p2891
(lp2892
F27.0
aF3.0
asS'tremor'
p2893
(lp2894
I0
aF1.0
asS'vaccination'
p2895
(lp2896
I0
aF1.0
asS'roaring'
p2897
(lp2898
I0
aF1.0
asS'earthquake'
p2899
(lp2900
I0
aF17.0
asS'change'
p2901
(lp2902
F44.0
aF68.0
asS'wait'
p2903
(lp2904
F1.0
aF1.0
asS'sending'
p2905
(lp2906
I0
aF4.0
asS'merriment'
p2907
(lp2908
F1.0
aF1.0
asS'arc'
p2909
(lp2910
F6.0
aF37.0
asS'redemption'
p2911
(lp2912
I0
aF1.0
asS'boast'
p2913
(lp2914
I0
aF1.0
asS'pressure'
p2915
(lp2916
F33.0
aF69.0
asS'shift'
p2917
(lp2918
F3.0
aF15.0
asS'screech'
p2919
(lp2920
I0
aF1.0
asS'cup_of_tea'
p2921
(lp2922
I0
aF1.0
asS'contradiction'
p2923
(lp2924
F7.0
aF1.0
asS'gunfire'
p2925
(lp2926
I0
aF5.0
asS'exploitation'
p2927
(lp2928
I0
aF4.0
asS'trial'
p2929
(lp2930
I0
aF97.0
asS'bw'
p2931
(lp2932
I0
aF5.0
asS'survey'
p2933
(lp2934
I0
aF10.0
asS'absenteeism'
p2935
(lp2936
I0
aF1.0
asS'suggestion'
p2937
(lp2938
F13.0
aF9.0
asS'defeat'
p2939
(lp2940
I0
aF9.0
asS'opinion'
p2941
(lp2942
F27.0
aF2.0
asS'salvation'
p2943
(lp2944
I0
aF10.0
asS'line_double'
p2945
(lp2946
I0
aF1.0
asS'influx'
p2947
(lp2948
I0
aF1.0
asS'respite'
p2949
(lp2950
I0
aF1.0
asS'ball_game'
p2951
(lp2952
I0
aF1.0
asS'stabilization'
p2953
(lp2954
I0
aF2.0
asS'slinging'
p2955
(lp2956
I0
aF1.0
asS'blizzard'
p2957
(lp2958
I0
aF1.0
asS'danger'
p2959
(lp2960
F13.0
aF8.0
asS'win'
p2961
(lp2962
I0
aF2.0
asS'lending'
p2963
(lp2964
I0
aF1.0
asS'korean_war'
p2965
(lp2966
I0
aF3.0
asS'berth'
p2967
(lp2968
I0
aF2.0
asS'inhalation'
p2969
(lp2970
I0
aF1.0
asS'decrease'
p2971
(lp2972
I0
aF5.0
asS'buildup'
p2973
(lp2974
I0
aF3.0
asS'scandal'
p2975
(lp2976
I0
aF4.0
asS'administration'
p2977
(lp2978
F4.0
aF10.0
asS'singing'
p2979
(lp2980
I0
aF6.0
asS'crisis'
p2981
(lp2982
F7.0
aF6.0
asS'market'
p2983
(lp2984
F14.0
aF12.0
asS'disposal'
p2985
(lp2986
F4.0
aF2.0
asS'electrophoresis'
p2987
(lp2988
I0
aF1.0
asS'use'
p2989
(lp2990
F22.0
aF93.0
asS'perfusion'
p2991
(lp2992
I0
aF1.0
asS'vote_of_confidence'
p2993
(lp2994
I0
aF1.0
asS'consumption'
p2995
(lp2996
I0
aF2.0
asS'anticoagulation'
p2997
(lp2998
I0
aF1.0
asS'epiphany'
p2999
(lp3000
I0
aF2.0
asS'breakup'
p3001
(lp3002
I0
aF3.0
asS'whipping'
p3003
(lp3004
I0
aF1.0
asS'downfall'
p3005
(lp3006
I0
aF1.0
asS'visit'
p3007
(lp3008
F7.0
aF15.0
asS'data_processing'
p3009
(lp3010
I0
aF1.0
asS'ravage'
p3011
(lp3012
I0
aF1.0
asS'sequence'
p3013
(lp3014
F19.0
aF3.0
asS'paper_electrophoresis'
p3015
(lp3016
I0
aF2.0
asS'carpentry'
p3017
(lp3018
I0
aF3.0
asS'approach'
p3019
(lp3020
F2.0
aF35.0
asS'sacrifice_fly'
p3021
(lp3022
I0
aF1.0
asS'somersault'
p3023
(lp3024
I0
aF4.0
asS'weeping'
p3025
(lp3026
I0
aF1.0
asS'misunderstanding'
p3027
(lp3028
I0
aF1.0
asS'ripening'
p3029
(lp3030
I0
aF1.0
asS'conservation'
p3031
(lp3032
I0
aF3.0
asS'medical_practice'
p3033
(lp3034
I0
aF1.0
asS'checkout'
p3035
(lp3036
I0
aF1.0
asS'onslaught'
p3037
(lp3038
I0
aF2.0
asS'refusal'
p3039
(lp3040
F1.0
aF4.0
asS'raw_deal'
p3041
(lp3042
I0
aF1.0
asS'possession'
p3043
(lp3044
F6.0
aF6.0
asS'rainfall'
p3045
(lp3046
I0
aF1.0
asS'entrance'
p3047
(lp3048
F10.0
aF8.0
asS'exhibition_game'
p3049
(lp3050
I0
aF1.0
asS'avarice'
p3051
(lp3052
I0
aF1.0
asS'riot'
p3053
(lp3054
I0
aF1.0
asS'cluck'
p3055
(lp3056
I0
aF2.0
asS'sculpture'
p3057
(lp3058
F9.0
aF3.0
asS'boarding'
p3059
(lp3060
I0
aF2.0
asS'modernization'
p3061
(lp3062
I0
aF8.0
asS'interplay'
p3063
(lp3064
I0
aF2.0
asS'dealings'
p3065
(lp3066
I0
aF1.0
asS'escape'
p3067
(lp3068
I0
aF8.0
asS'purification'
p3069
(lp3070
I0
aF2.0
asS'3-hitter'
p3071
(lp3072
I0
aF1.0
asS'prophecy'
p3073
(lp3074
I0
aF2.0
asS'effort'
p3075
(lp3076
F1.0
aF89.0
asS'learned_reaction'
p3077
(lp3078
I0
aF1.0
asS'behalf'
p3079
(lp3080
F2.0
aF4.0
asS'charity'
p3081
(lp3082
F3.0
aF1.0
asS'fly'
p3083
(lp3084
F6.0
aF1.0
asS'account'
p3085
(lp3086
F24.0
aF3.0
asS'pageant'
p3087
(lp3088
I0
aF1.0
asS'thwack'
p3089
(lp3090
I0
aF1.0
asS'integrating'
p3091
(lp3092
I0
aF1.0
asS'vaudeville'
p3093
(lp3094
I0
aF4.0
asS'lapse'
p3095
(lp3096
I0
aF4.0
asS'abortion'
p3097
(lp3098
I0
aF3.0
asS'soul'
p3099
(lp3100
F23.0
aF1.0
asS'booking'
p3101
(lp3102
I0
aF7.0
asS'track_meet'
p3103
(lp3104
I0
aF1.0
asS'insurance_claim'
p3105
(lp3106
I0
aF1.0
asS'roar'
p3107
(lp3108
F1.0
aF3.0
asS'printing'
p3109
(lp3110
F2.0
aF1.0
asS'praise'
p3111
(lp3112
I0
aF4.0
asS'growing'
p3113
(lp3114
F1.0
aF3.0
asS'revelry'
p3115
(lp3116
I0
aF1.0
asS'closing'
p3117
(lp3118
I0
aF2.0
asS'equilibrium'
p3119
(lp3120
F4.0
aF2.0
asS'sex_activity'
p3121
(lp3122
I0
aF1.0
asS'police_investigation'
p3123
(lp3124
I0
aF1.0
asS'fulfillment'
p3125
(lp3126
F3.0
aF2.0
asS'control'
p3127
(lp3128
F44.0
aF11.0
asS'high_fidelity'
p3129
(lp3130
I0
aF4.0
asS'enlargement'
p3131
(lp3132
I0
aF2.0
asS'violence'
p3133
(lp3134
F3.0
aF13.0
asS'patrol'
p3135
(lp3136
F9.0
aF1.0
asS'stream'
p3137
(lp3138
F19.0
aF5.0
asS'home_run'
p3139
(lp3140
I0
aF13.0
asS'process'
p3141
(lp3142
F3.0
aF83.0
asS'irruption'
p3143
(lp3144
I0
aF1.0
asS'distillation'
p3145
(lp3146
I0
aF3.0
asS'double-crossing'
p3147
(lp3148
I0
aF1.0
asS'business_enterprise'
p3149
(lp3150
I0
aF1.0
asS'villain'
p3151
(lp3152
F1.0
aF1.0
asS'pulling'
p3153
(lp3154
I0
aF1.0
asS'bend'
p3155
(lp3156
F2.0
aF1.0
asS'slip'
p3157
(lp3158
I0
aF5.0
asS'holy_sacrament'
p3159
(lp3160
I0
aF1.0
asS'offense'
p3161
(lp3162
F1.0
aF3.0
asS'simulation'
p3163
(lp3164
I0
aF1.0
asS'breaking'
p3165
(lp3166
I0
aF1.0
asS'sip'
p3167
(lp3168
I0
aF2.0
asS'monitoring'
p3169
(lp3170
I0
aF4.0
asS'dialysis'
p3171
(lp3172
I0
aF12.0
asS'inheritance'
p3173
(lp3174
I0
aF2.0
asS'positive_feedback'
p3175
(lp3176
I0
aF1.0
asS'discussion'
p3177
(lp3178
I0
aF49.0
asS'antagonism'
p3179
(lp3180
I0
aF6.0
asS'inside_job'
p3181
(lp3182
I0
aF1.0
asS'harvest'
p3183
(lp3184
F1.0
aF2.0
asS'delay'
p3185
(lp3186
F2.0
aF2.0
asS'convoy'
p3187
(lp3188
I0
aF1.0
asS'crutch'
p3189
(lp3190
F2.0
aF1.0
asS'monopolization'
p3191
(lp3192
I0
aF1.0
asS'europeanization'
p3193
(lp3194
I0
aF1.0
asS'social_event'
p3195
(lp3196
I0
aF1.0
asS'loose_end'
p3197
(lp3198
I0
aF1.0
asS'husbandry'
p3199
(lp3200
I0
aF1.0
asS'establishment'
p3201
(lp3202
F9.0
aF10.0
asS'sin'
p3203
(lp3204
F14.0
aF8.0
asS'disassembly'
p3205
(lp3206
I0
aF1.0
asS'economy'
p3207
(lp3208
F22.0
aF1.0
asS'fare'
p3209
(lp3210
I0
aF2.0
asS'ceremony'
p3211
(lp3212
I0
aF11.0
asS'diagnosing'
p3213
(lp3214
I0
aF1.0
asS'diplomacy'
p3215
(lp3216
F1.0
aF1.0
asS'long_shot'
p3217
(lp3218
I0
aF1.0
asS'stop'
p3219
(lp3220
F2.0
aF8.0
asS'sacrifice'
p3221
(lp3222
I0
aF6.0
asS'testimony'
p3223
(lp3224
F7.0
aF4.0
asS'spot'
p3225
(lp3226
F23.0
aF1.0
asS'collection'
p3227
(lp3228
F11.0
aF2.0
asS'walk'
p3229
(lp3230
F4.0
aF9.0
asS'detachment'
p3231
(lp3232
F1.0
aF1.0
asS'abuse'
p3233
(lp3234
I0
aF1.0
asS'fatigue'
p3235
(lp3236
F4.0
aF1.0
asS'higher_education'
p3237
(lp3238
I0
aF1.0
asS'bluff'
p3239
(lp3240
F5.0
aF2.0
asS'share'
p3241
(lp3242
F40.0
aF4.0
asS'multiplication'
p3243
(lp3244
I0
aF1.0
asS'apprenticeship'
p3245
(lp3246
I0
aF1.0
asS'suck'
p3247
(lp3248
I0
aF1.0
asS'degradation'
p3249
(lp3250
I0
aF1.0
asS'nomination'
p3251
(lp3252
I0
aF3.0
asS'renovation'
p3253
(lp3254
I0
aF1.0
asS'curve'
p3255
(lp3256
F27.0
aF1.0
asS'tumbling'
p3257
(lp3258
I0
aF1.0
asS'stress'
p3259
(lp3260
F76.0
aF2.0
asS'induction'
p3261
(lp3262
F1.0
aF3.0
asS'wild_pitch'
p3263
(lp3264
I0
aF2.0
asS'liquid'
p3265
(lp3266
F10.0
aF5.0
asS'self-control'
p3267
(lp3268
I0
aF1.0
asS'heroics'
p3269
(lp3270
I0
aF1.0
asS'borrowing'
p3271
(lp3272
I0
aF1.0
asS'liner'
p3273
(lp3274
I0
aF1.0
asS'accenting'
p3275
(lp3276
I0
aF1.0
asS'heredity'
p3277
(lp3278
I0
aF1.0
asS'switch'
p3279
(lp3280
F4.0
aF1.0
asS'doubleheader'
p3281
(lp3282
I0
aF1.0
asS'deposit'
p3283
(lp3284
F1.0
aF1.0
asS'agenda'
p3285
(lp3286
I0
aF3.0
asS'invocation'
p3287
(lp3288
I0
aF1.0
asS'skirmish'
p3289
(lp3290
I0
aF2.0
asS'representation'
p3291
(lp3292
F20.0
aF1.0
asS'abreaction'
p3293
(lp3294
I0
aF1.0
asS'irregularity'
p3295
(lp3296
F3.0
aF3.0
asS'talk'
p3297
(lp3298
I0
aF12.0
asS'procrastination'
p3299
(lp3300
I0
aF1.0
asS'refund'
p3301
(lp3302
F7.0
aF1.0
asS'bathing'
p3303
(lp3304
I0
aF2.0
asS'recrimination'
p3305
(lp3306
I0
aF2.0
asS'disposition'
p3307
(lp3308
F2.0
aF1.0
asS'disclosure'
p3309
(lp3310
I0
aF1.0
asS'footstep'
p3311
(lp3312
F3.0
aF5.0
asS'move'
p3313
(lp3314
I0
aF12.0
asS'wishing'
p3315
(lp3316
I0
aF1.0
asS'denial'
p3317
(lp3318
I0
aF9.0
asS'making'
p3319
(lp3320
I0
aF7.0
asS'damage'
p3321
(lp3322
I0
aF13.0
asS'course'
p3323
(lp3324
F31.0
aF69.0
asS'quake'
p3325
(lp3326
I0
aF3.0
asS'pitch'
p3327
(lp3328
F8.0
aF3.0
asS'arrangement'
p3329
(lp3330
F11.0
aF16.0
asS'worship'
p3331
(lp3332
I0
aF12.0
asS'magnetic_resonance'
p3333
(lp3334
I0
aF2.0
asS'tending'
p3335
(lp3336
I0
aF1.0
asS'world_affairs'
p3337
(lp3338
I0
aF1.0
asS'decay'
p3339
(lp3340
I0
aF5.0
asS'flocculation'
p3341
(lp3342
I0
aF1.0
asS'nostalgia'
p3343
(lp3344
I0
aF2.0
asS'septation'
p3345
(lp3346
I0
aF1.0
asS'labor'
p3347
(lp3348
F20.0
aF19.0
asS'attraction'
p3349
(lp3350
F3.0
aF6.0
asS'hubbub'
p3351
(lp3352
I0
aF1.0
asS'willing'
p3353
(lp3354
I0
aF1.0
asS'stroll'
p3355
(lp3356
I0
aF1.0
asS'shock_therapy'
p3357
(lp3358
I0
aF1.0
asS'policy'
p3359
(lp3360
F27.0
aF33.0
asS'derivative'
p3361
(lp3362
I0
aF1.0
asS'blessing'
p3363
(lp3364
I0
aF1.0
asS'uptake'
p3365
(lp3366
I0
aF5.0
asS'intelligence_test'
p3367
(lp3368
I0
aF3.0
asS'petition'
p3369
(lp3370
I0
aF6.0
asS'chattering'
p3371
(lp3372
I0
aF1.0
asS'heat_sink'
p3373
(lp3374
I0
aF1.0
asS'practice_session'
p3375
(lp3376
I0
aF1.0
asS'crash'
p3377
(lp3378
I0
aF7.0
asS'gassing'
p3379
(lp3380
I0
aF2.0
asS'nod'
p3381
(lp3382
F1.0
aF1.0
asS'belch'
p3383
(lp3384
I0
aF2.0
asS'isolation'
p3385
(lp3386
F4.0
aF1.0
asS'practice'
p3387
(lp3388
F1.0
aF31.0
asS'indexing'
p3389
(lp3390
I0
aF1.0
asS'christening'
p3391
(lp3392
I0
aF1.0
asS'interview'
p3393
(lp3394
I0
aF9.0
asS'cutting'
p3395
(lp3396
F1.0
aF3.0
asS'kiss'
p3397
(lp3398
I0
aF7.0
asS'hands'
p3399
(lp3400
F1.0
aF9.0
asS'x-ray_diffraction'
p3401
(lp3402
I0
aF3.0
asS'conformity'
p3403
(lp3404
F3.0
aF2.0
asS'rotation'
p3405
(lp3406
I0
aF3.0
asS'reckoning'
p3407
(lp3408
I0
aF1.0
asS'provision'
p3409
(lp3410
F27.0
aF5.0
asS'murder'
p3411
(lp3412
I0
aF43.0
asS'auto_mechanics'
p3413
(lp3414
I0
aF2.0
asS'down'
p3415
(lp3416
F1.0
aF1.0
asS'inversion'
p3417
(lp3418
I0
aF1.0
asS'in-fighting'
p3419
(lp3420
I0
aF1.0
asS'tow'
p3421
(lp3422
I0
aF1.0
asS'neutrality'
p3423
(lp3424
I0
aF1.0
asS'undertaking'
p3425
(lp3426
I0
aF1.0
asS'adjournment'
p3427
(lp3428
I0
aF2.0
asS'slide'
p3429
(lp3430
F4.0
aF2.0
asS'dispensation'
p3431
(lp3432
I0
aF1.0
asS'truth'
p3433
(lp3434
F25.0
aF5.0
asS'rite'
p3435
(lp3436
I0
aF3.0
asS'disregard'
p3437
(lp3438
F1.0
aF1.0
asS'importation'
p3439
(lp3440
I0
aF1.0
asS'shaking'
p3441
(lp3442
I0
aF2.0
asS'group_action'
p3443
(lp3444
I0
aF1.0
asS'brush'
p3445
(lp3446
F19.0
aF1.0
asS'threshing'
p3447
(lp3448
I0
aF1.0
asS'bench_press'
p3449
(lp3450
I0
aF2.0
asS'tension'
p3451
(lp3452
F15.0
aF3.0
asS'cultivation'
p3453
(lp3454
I0
aF2.0
asS'adventure'
p3455
(lp3456
I0
aF10.0
asS'receipt'
p3457
(lp3458
F2.0
aF3.0
asS'sub-test'
p3459
(lp3460
I0
aF2.0
asS'retaliation'
p3461
(lp3462
I0
aF2.0
asS'breakthrough'
p3463
(lp3464
F1.0
aF1.0
asS'world_war'
p3465
(lp3466
I0
aF2.0
asS'catching'
p3467
(lp3468
I0
aF1.0
asS'exodus'
p3469
(lp3470
I0
aF1.0
asS'fund-raising_drive'
p3471
(lp3472
I0
aF1.0
asS'preaching'
p3473
(lp3474
I0
aF10.0
asS'measure'
p3475
(lp3476
F16.0
aF7.0
asS'cliche'
p3477
(lp3478
I0
aF5.0
asS'interfacial_tension'
p3479
(lp3480
I0
aF3.0
asS'bay'
p3481
(lp3482
F7.0
aF1.0
asS'agriculture'
p3483
(lp3484
I0
aF5.0
asS'amusement'
p3485
(lp3486
F3.0
aF1.0
asS'complaint'
p3487
(lp3488
F3.0
aF2.0
asS'constitution'
p3489
(lp3490
F2.0
aF1.0
asS'entertainment'
p3491
(lp3492
I0
aF6.0
asS'house'
p3493
(lp3494
F154.0
aF1.0
asS'dismissal'
p3495
(lp3496
I0
aF1.0
asS'horoscope'
p3497
(lp3498
I0
aF1.0
asS'interference'
p3499
(lp3500
F3.0
aF4.0
asS'soft-shoe'
p3501
(lp3502
I0
aF1.0
asS'increase'
p3503
(lp3504
F52.0
aF31.0
asS'replacing'
p3505
(lp3506
I0
aF1.0
asS'onrush'
p3507
(lp3508
I0
aF3.0
asS'evacuation'
p3509
(lp3510
I0
aF3.0
asS'public_debate'
p3511
(lp3512
I0
aF1.0
asS'lecture'
p3513
(lp3514
I0
aF8.0
asS'intervention'
p3515
(lp3516
I0
aF3.0
asS'cause'
p3517
(lp3518
F16.0
aF17.0
asS'dive'
p3519
(lp3520
F4.0
aF1.0
asS'assurance'
p3521
(lp3522
F6.0
aF1.0
asS'catharsis'
p3523
(lp3524
I0
aF4.0
asS'demoralization'
p3525
(lp3526
I0
aF1.0
asS'rebuilding'
p3527
(lp3528
I0
aF2.0
asS'academicianship'
p3529
(lp3530
I0
aF1.0
asS'hopscotch'
p3531
(lp3532
I0
aF1.0
asS'siege'
p3533
(lp3534
I0
aF1.0
asS'variant'
p3535
(lp3536
I0
aF1.0
asS'activity'
p3537
(lp3538
F36.0
aF56.0
asS'divergence'
p3539
(lp3540
I0
aF1.0
asS'release'
p3541
(lp3542
F6.0
aF10.0
asS'american_revolution'
p3543
(lp3544
I0
aF1.0
asS'fusion'
p3545
(lp3546
I0
aF4.0
asS'musing'
p3547
(lp3548
I0
aF1.0
asS'telephone_order'
p3549
(lp3550
I0
aF1.0
asS'thrust'
p3551
(lp3552
I0
aF4.0
asS'obligation'
p3553
(lp3554
F1.0
aF13.0
asS'questioning'
p3555
(lp3556
I0
aF4.0
asS'inevitable'
p3557
(lp3558
I0
aF1.0
asS'care'
p3559
(lp3560
F5.0
aF5.0
asS'patronage'
p3561
(lp3562
I0
aF3.0
asS'advance'
p3563
(lp3564
I0
aF7.0
asS'training'
p3565
(lp3566
I0
aF71.0
asS'interaction'
p3567
(lp3568
I0
aF15.0
asS'contemplation'
p3569
(lp3570
I0
aF2.0
asS'derivation'
p3571
(lp3572
F1.0
aF2.0
asS'question'
p3573
(lp3574
F60.0
aF73.0
asS'transition'
p3575
(lp3576
I0
aF14.0
asS'programming'
p3577
(lp3578
I0
aF2.0
asS'nuclear_resonance'
p3579
(lp3580
I0
aF1.0
asS'times'
p3581
(lp3582
F19.0
aF1.0
asS'motion'
p3583
(lp3584
F5.0
aF12.0
asS'stride'
p3585
(lp3586
F3.0
aF2.0
asS'radio_observation'
p3587
(lp3588
I0
aF2.0
asS'place'
p3589
(lp3590
F146.0
aF12.0
asS'qualification'
p3591
(lp3592
F8.0
aF2.0
asS'invitation'
p3593
(lp3594
I0
aF5.0
asS'benediction'
p3595
(lp3596
I0
aF1.0
asS'promotion'
p3597
(lp3598
F4.0
aF1.0
asS'retail'
p3599
(lp3600
I0
aF1.0
asS'neglect'
p3601
(lp3602
F3.0
aF1.0
asS'numbers_game'
p3603
(lp3604
I0
aF1.0
asS'origin'
p3605
(lp3606
F15.0
aF1.0
asS'gunshot'
p3607
(lp3608
I0
aF1.0
asS'silent_movie'
p3609
(lp3610
I0
aF2.0
asS'saving'
p3611
(lp3612
I0
aF7.0
asS'bargaining'
p3613
(lp3614
I0
aF1.0
asS'wave'
p3615
(lp3616
F2.0
aF51.0
asS'scene'
p3617
(lp3618
F47.0
aF6.0
asS'reprisal'
p3619
(lp3620
I0
aF2.0
asS'penance'
p3621
(lp3622
F1.0
aF1.0
asS'high_finance'
p3623
(lp3624
I0
aF1.0
asS'errand'
p3625
(lp3626
I0
aF5.0
asS'unearned_run'
p3627
(lp3628
I0
aF1.0
asS'self-help'
p3629
(lp3630
I0
aF1.0
asS'vote'
p3631
(lp3632
F1.0
aF16.0
asS'forwarding'
p3633
(lp3634
I0
aF1.0
asS'coughing'
p3635
(lp3636
I0
aF1.0
asS'prank'
p3637
(lp3638
I0
aF1.0
asS'sexual_relation'
p3639
(lp3640
I0
aF1.0
asS'dispersion'
p3641
(lp3642
I0
aF1.0
asS'management'
p3643
(lp3644
F8.0
aF19.0
asS'reference'
p3645
(lp3646
F13.0
aF21.0
asS'capital_punishment'
p3647
(lp3648
I0
aF1.0
asS'capacitance'
p3649
(lp3650
I0
aF1.0
asS'ordering'
p3651
(lp3652
F4.0
aF3.0
asS'bloom'
p3653
(lp3654
F4.0
aF2.0
asS'price_cutting'
p3655
(lp3656
I0
aF1.0
asS'system'
p3657
(lp3658
F107.0
aF6.0
asS'occupancy'
p3659
(lp3660
I0
aF1.0
asS"van_der_waal's_forces"
p3661
(lp3662
I0
aF1.0
asS'stimulation'
p3663
(lp3664
F3.0
aF5.0
asS'percussion'
p3665
(lp3666
I0
aF2.0
asS'attack'
p3667
(lp3668
I0
aF22.0
asS'accretion'
p3669
(lp3670
I0
aF2.0
asS'draft'
p3671
(lp3672
F2.0
aF1.0
asS'chastity'
p3673
(lp3674
I0
aF1.0
asS'blackening'
p3675
(lp3676
I0
aF1.0
asS'realization'
p3677
(lp3678
F3.0
aF3.0
asS'cooling'
p3679
(lp3680
F1.0
aF6.0
asS'expurgation'
p3681
(lp3682
I0
aF1.0
asS'bloodshed'
p3683
(lp3684
I0
aF2.0
asS'festivity'
p3685
(lp3686
I0
aF3.0
asS'pervaporation'
p3687
(lp3688
I0
aF1.0
asS'mining'
p3689
(lp3690
I0
aF3.0
asS'thaw'
p3691
(lp3692
I0
aF2.0
asS'overture'
p3693
(lp3694
F1.0
aF1.0
asS'thieving'
p3695
(lp3696
I0
aF2.0
asS"bull's_eye"
p3697
(lp3698
F2.0
aF14.0
asS'bit'
p3699
(lp3700
F16.0
aF1.0
asS're-introduction'
p3701
(lp3702
I0
aF1.0
asS'perpetuation'
p3703
(lp3704
I0
aF2.0
asS'meddling'
p3705
(lp3706
I0
aF1.0
asS'excursion'
p3707
(lp3708
I0
aF1.0
asS'sine_qua_non'
p3709
(lp3710
I0
aF1.0
asS'systematization'
p3711
(lp3712
I0
aF2.0
asS'accompaniment'
p3713
(lp3714
F1.0
aF1.0
asS'manifestation'
p3715
(lp3716
F3.0
aF6.0
asS'punishment'
p3717
(lp3718
I0
aF11.0
asS'self-aggrandisement'
p3719
(lp3720
I0
aF1.0
asS'objectification'
p3721
(lp3722
I0
aF2.0
asS'differentiation'
p3723
(lp3724
F5.0
aF1.0
asS'omen'
p3725
(lp3726
I0
aF1.0
asS'ultimatum'
p3727
(lp3728
I0
aF1.0
asS'bid'
p3729
(lp3730
I0
aF1.0
asS'warfare'
p3731
(lp3732
I0
aF10.0
asS'electroshock'
p3733
(lp3734
I0
aF2.0
asS'accordance'
p3735
(lp3736
I0
aF8.0
asS'packing'
p3737
(lp3738
F2.0
aF1.0
asS'scraping'
p3739
(lp3740
F1.0
aF1.0
asS'folly'
p3741
(lp3742
F2.0
aF1.0
asS'typography'
p3743
(lp3744
F1.0
aF2.0
asS'optimism'
p3745
(lp3746
I0
aF2.0
asS'fastball'
p3747
(lp3748
I0
aF2.0
asS'claim'
p3749
(lp3750
F5.0
aF43.0
asS'calamity'
p3751
(lp3752
I0
aF2.0
asS'transgression'
p3753
(lp3754
I0
aF1.0
asS'water_sport'
p3755
(lp3756
I0
aF1.0
asS'reproduction'
p3757
(lp3758
I0
aF1.0
asS'briefing'
p3759
(lp3760
I0
aF1.0
asS'synthesis'
p3761
(lp3762
I0
aF8.0
asS'pulsation'
p3763
(lp3764
I0
aF1.0
asS'torrent'
p3765
(lp3766
I0
aF1.0
asS'devotion'
p3767
(lp3768
F2.0
aF1.0
asS'result'
p3769
(lp3770
I0
aF131.0
asS'obliteration'
p3771
(lp3772
I0
aF2.0
asS'fork'
p3773
(lp3774
F6.0
aF2.0
asS'gathering'
p3775
(lp3776
F3.0
aF4.0
asS'twisting'
p3777
(lp3778
I0
aF1.0
asS'solo_blast'
p3779
(lp3780
I0
aF1.0
asS'selection'
p3781
(lp3782
F3.0
aF13.0
asS'correction'
p3783
(lp3784
F2.0
aF2.0
asS'parking'
p3785
(lp3786
F2.0
aF2.0
asS'argument'
p3787
(lp3788
F21.0
aF18.0
asS'generalization'
p3789
(lp3790
F3.0
aF1.0
asS'contortion'
p3791
(lp3792
I0
aF1.0
asS'dash'
p3793
(lp3794
F1.0
aF1.0
asS'case'
p3795
(lp3796
F73.0
aF83.0
asS'conspiracy'
p3797
(lp3798
F5.0
aF3.0
asS'pastime'
p3799
(lp3800
I0
aF1.0
asS'supervision'
p3801
(lp3802
I0
aF6.0
asS'close'
p3803
(lp3804
F8.0
aF1.0
asS'blunder'
p3805
(lp3806
I0
aF2.0
asS'demonstration'
p3807
(lp3808
F2.0
aF11.0
asS'marathon'
p3809
(lp3810
I0
aF1.0
asS'acceleration'
p3811
(lp3812
F3.0
aF2.0
asS'instrumentation'
p3813
(lp3814
F3.0
aF1.0
asS'conversion'
p3815
(lp3816
I0
aF15.0
asS'squat'
p3817
(lp3818
I0
aF1.0
asS'campfire'
p3819
(lp3820
I0
aF1.0
asS'gravity'
p3821
(lp3822
F1.0
aF2.0
asS'mechanism'
p3823
(lp3824
F2.0
aF11.0
asS'note'
p3825
(lp3826
F36.0
aF1.0
asS'instance'
p3827
(lp3828
F4.0
aF18.0
asS'extrapolation'
p3829
(lp3830
I0
aF3.0
asS'saturation'
p3831
(lp3832
I0
aF3.0
asS'idealization'
p3833
(lp3834
I0
aF1.0
asS'tactic'
p3835
(lp3836
I0
aF4.0
asS'performance'
p3837
(lp3838
I0
aF67.0
asS'con_game'
p3839
(lp3840
I0
aF1.0
asS'wonder'
p3841
(lp3842
F4.0
aF4.0
asS'impairment'
p3843
(lp3844
I0
aF1.0
asS'switching'
p3845
(lp3846
I0
aF1.0
asS'channel'
p3847
(lp3848
F2.0
aF4.0
asS'thermal_emission'
p3849
(lp3850
I0
aF1.0
asS'surf'
p3851
(lp3852
I0
aF1.0
asS'refocusing'
p3853
(lp3854
I0
aF1.0
asS'tally'
p3855
(lp3856
I0
aF4.0
asS'agglutinating_activity'
p3857
(lp3858
I0
aF1.0
asS'theatre'
p3859
(lp3860
F9.0
aF2.0
asS'voyage'
p3861
(lp3862
I0
aF12.0
asS'tornado'
p3863
(lp3864
I0
aF1.0
asS'hit'
p3865
(lp3866
I0
aF18.0
asS'sewing'
p3867
(lp3868
I0
aF1.0
asS'betrayal'
p3869
(lp3870
I0
aF2.0
asS'capillary_action'
p3871
(lp3872
I0
aF1.0
asS'immigration'
p3873
(lp3874
I0
aF1.0
asS'rehearsal'
p3875
(lp3876
I0
aF6.0
asS'boiling'
p3877
(lp3878
I0
aF1.0
asS'courtesy'
p3879
(lp3880
I0
aF2.0
asS'vengeance'
p3881
(lp3882
I0
aF2.0
asS'cracking'
p3883
(lp3884
I0
aF1.0
asS'de-iodination'
p3885
(lp3886
I0
aF1.0
asS'device'
p3887
(lp3888
F37.0
aF2.0
asS'sally'
p3889
(lp3890
I0
aF1.0
asS'chomp'
p3891
(lp3892
I0
aF1.0
asS'commutation'
p3893
(lp3894
I0
aF1.0
asS'calving'
p3895
(lp3896
I0
aF3.0
asS'picture'
p3897
(lp3898
F76.0
aF5.0
asS'vapor'
p3899
(lp3900
F2.0
aF1.0
asS'placement'
p3901
(lp3902
F6.0
aF3.0
asS'driving_force'
p3903
(lp3904
I0
aF1.0
asS'upset'
p3905
(lp3906
F1.0
aF1.0
asS'drive'
p3907
(lp3908
F9.0
aF13.0
asS'contention'
p3909
(lp3910
I0
aF6.0
asS'tooth'
p3911
(lp3912
F29.0
aF1.0
asS'proceedings'
p3913
(lp3914
I0
aF5.0
asS'gesture'
p3915
(lp3916
F6.0
aF6.0
asS'rendezvous'
p3917
(lp3918
I0
aF3.0
asS'occasion'
p3919
(lp3920
F3.0
aF19.0
asS'duplication'
p3921
(lp3922
F1.0
aF1.0
asS'painting'
p3923
(lp3924
F13.0
aF14.0
asS'review'
p3925
(lp3926
F6.0
aF1.0
asS'drain'
p3927
(lp3928
I0
aF1.0
asS'affair'
p3929
(lp3930
F15.0
aF4.0
asS'atmosphere'
p3931
(lp3932
F33.0
aF3.0
asS'sail'
p3933
(lp3934
F1.0
aF1.0
asS'shot'
p3935
(lp3936
F17.0
aF26.0
asS'intimidation'
p3937
(lp3938
I0
aF2.0
asS'show'
p3939
(lp3940
F7.0
aF18.0
asS'violation'
p3941
(lp3942
I0
aF11.0
asS'sexual_union'
p3943
(lp3944
I0
aF1.0
asS'bit_part'
p3945
(lp3946
I0
aF1.0
asS'blood_pressure'
p3947
(lp3948
I0
aF2.0
asS'planning'
p3949
(lp3950
I0
aF32.0
asS'ministration'
p3951
(lp3952
I0
aF1.0
asS'magnetic_moment'
p3953
(lp3954
I0
aF1.0
asS'authorship'
p3955
(lp3956
I0
aF1.0
asS'corner'
p3957
(lp3958
F60.0
aF1.0
asS'recording'
p3959
(lp3960
F14.0
aF5.0
asS'forecast'
p3961
(lp3962
I0
aF1.0
asS'feat'
p3963
(lp3964
I0
aF5.0
asS'line'
p3965
(lp3966
F108.0
aF16.0
asS'help'
p3967
(lp3968
F5.0
aF20.0
asS'litigation'
p3969
(lp3970
I0
aF1.0
asS'organification'
p3971
(lp3972
I0
aF4.0
asS'juxtaposition'
p3973
(lp3974
I0
aF1.0
asS'legation'
p3975
(lp3976
I0
aF2.0
asS'conduction'
p3977
(lp3978
I0
aF2.0
asS'proclamation'
p3979
(lp3980
I0
aF6.0
asS'jolt'
p3981
(lp3982
I0
aF1.0
asS'football'
p3983
(lp3984
F2.0
aF9.0
asS'land_reform'
p3985
(lp3986
I0
aF4.0
asS'liberation'
p3987
(lp3988
I0
aF1.0
asS'tears'
p3989
(lp3990
I0
aF7.0
asS'going'
p3991
(lp3992
I0
aF1.0
asS'buying'
p3993
(lp3994
I0
aF3.0
asS'outrage'
p3995
(lp3996
F1.0
aF1.0
asS'marriage'
p3997
(lp3998
F36.0
aF2.0
asS'watching'
p3999
(lp4000
I0
aF2.0
asS'jab'
p4001
(lp4002
I0
aF2.0
asS'bricklaying'
p4003
(lp4004
I0
aF2.0
asS'hope'
p4005
(lp4006
F31.0
aF15.0
asS'dispute'
p4007
(lp4008
I0
aF2.0
asS'dodge'
p4009
(lp4010
I0
aF1.0
asS'overeating'
p4011
(lp4012
I0
aF1.0
asS'packaging'
p4013
(lp4014
I0
aF1.0
asS'means'
p4015
(lp4016
F11.0
aF47.0
asS'beat'
p4017
(lp4018
F2.0
aF1.0
asS'calibration'
p4019
(lp4020
I0
aF7.0
asS'photography'
p4021
(lp4022
I0
aF1.0
asS'impinging'
p4023
(lp4024
I0
aF3.0
asS'freezing'
p4025
(lp4026
I0
aF1.0
asS'fragmentation'
p4027
(lp4028
I0
aF1.0
asS'clang'
p4029
(lp4030
I0
aF1.0
asS'spraying'
p4031
(lp4032
I0
aF3.0
asS'procreation'
p4033
(lp4034
I0
aF5.0
asS'rendition'
p4035
(lp4036
I0
aF2.0
asS'burglary'
p4037
(lp4038
I0
aF2.0
asS'wheeze'
p4039
(lp4040
I0
aF1.0
asS'trade'
p4041
(lp4042
F3.0
aF39.0
asS'spur'
p4043
(lp4044
F4.0
aF3.0
asS'shaping'
p4045
(lp4046
I0
aF1.0
asS'round_table'
p4047
(lp4048
I0
aF1.0
asS'closure'
p4049
(lp4050
I0
aF1.0
asS'smash'
p4051
(lp4052
I0
aF1.0
asS'evolution'
p4053
(lp4054
I0
aF5.0
asS'reading'
p4055
(lp4056
F28.0
aF4.0
asS'dwindling_away'
p4057
(lp4058
I0
aF1.0
asS'gust'
p4059
(lp4060
F1.0
aF2.0
asS'coalescence'
p4061
(lp4062
I0
aF1.0
asS'differential'
p4063
(lp4064
I0
aF1.0
asS'pop_fly'
p4065
(lp4066
I0
aF1.0
asS'yield'
p4067
(lp4068
F2.0
aF4.0
asS'summary'
p4069
(lp4070
I0
aF5.0
asS'denouement'
p4071
(lp4072
I0
aF1.0
asS'disapprobation'
p4073
(lp4074
I0
aF1.0
asS'allegation'
p4075
(lp4076
I0
aF2.0
asS'corpuscular_radiation'
p4077
(lp4078
I0
aF2.0
asS'tightening'
p4079
(lp4080
I0
aF1.0
asS'handstand'
p4081
(lp4082
I0
aF3.0
asS'vision'
p4083
(lp4084
F16.0
aF1.0
asS'view'
p4085
(lp4086
F64.0
aF5.0
asS'guessing'
p4087
(lp4088
I0
aF1.0
asS'requirement'
p4089
(lp4090
F18.0
aF30.0
asS'omission'
p4091
(lp4092
F1.0
aF3.0
asS'picnic'
p4093
(lp4094
F2.0
aF1.0
asS'concert'
p4095
(lp4096
I0
aF5.0
asS'burst'
p4097
(lp4098
I0
aF7.0
asS'showdown'
p4099
(lp4100
I0
aF2.0
asS'admonition'
p4101
(lp4102
I0
aF3.0
asS'microphoning'
p4103
(lp4104
I0
aF1.0
asS'solo'
p4105
(lp4106
I0
aF1.0
asS'helm'
p4107
(lp4108
F1.0
aF1.0
asS'social_welfare'
p4109
(lp4110
I0
aF2.0
asS'two-baser'
p4111
(lp4112
I0
aF1.0
asS'walk_of_life'
p4113
(lp4114
I0
aF1.0
asS'hell'
p4115
(lp4116
F24.0
aF7.0
asS'racket'
p4117
(lp4118
I0
aF3.0
asS'water_program'
p4119
(lp4120
I0
aF1.0
asS'window-washing'
p4121
(lp4122
I0
aF1.0
asS'sport'
p4123
(lp4124
I0
aF14.0
asS'runoff'
p4125
(lp4126
I0
aF2.0
asS'conductivity'
p4127
(lp4128
I0
aF2.0
asS'traditionalism'
p4129
(lp4130
F1.0
aF1.0
asS'portion'
p4131
(lp4132
F36.0
aF4.0
asS'centrifugation'
p4133
(lp4134
I0
aF2.0
asS'vocation'
p4135
(lp4136
I0
aF2.0
asS'destiny'
p4137
(lp4138
F1.0
aF6.0
asS'camping'
p4139
(lp4140
I0
aF12.0
asS'reform'
p4141
(lp4142
I0
aF4.0
asS'pattern'
p4143
(lp4144
F46.0
aF23.0
asS"lord's_supper"
p4145
(lp4146
I0
aF1.0
asS'opening'
p4147
(lp4148
F5.0
aF6.0
asS'imprecation'
p4149
(lp4150
I0
aF1.0
asS'sponsorship'
p4151
(lp4152
I0
aF3.0
asS'favor'
p4153
(lp4154
F5.0
aF12.0
asS'identification'
p4155
(lp4156
F10.0
aF10.0
asS'altercation'
p4157
(lp4158
I0
aF1.0
asS'masking'
p4159
(lp4160
I0
aF1.0
asS'natural_phenomenon'
p4161
(lp4162
I0
aF1.0
asS'progress'
p4163
(lp4164
F1.0
aF35.0
asS'vaporization'
p4165
(lp4166
I0
aF1.0
asS'priming'
p4167
(lp4168
I0
aF1.0
asS'sabotage'
p4169
(lp4170
I0
aF2.0
asS'financial_aid'
p4171
(lp4172
I0
aF1.0
asS'arrival'
p4173
(lp4174
F1.0
aF5.0
asS'notice'
p4175
(lp4176
F6.0
aF11.0
asS'negative_charge'
p4177
(lp4178
I0
aF2.0
asS'ultracentrifugation'
p4179
(lp4180
I0
aF4.0
asS'commandment'
p4181
(lp4182
I0
aF2.0
asS'warehousing'
p4183
(lp4184
I0
aF1.0
asS'public_opinion_poll'
p4185
(lp4186
I0
aF1.0
asS'flow'
p4187
(lp4188
F9.0
aF25.0
asS'evaporation'
p4189
(lp4190
I0
aF2.0
asS'killing'
p4191
(lp4192
I0
aF10.0
asS'blame'
p4193
(lp4194
I0
aF4.0
asS'embarrassment'
p4195
(lp4196
F3.0
aF1.0
asS'countenance'
p4197
(lp4198
F3.0
aF1.0
asS'takeover'
p4199
(lp4200
I0
aF1.0
asS'hypothesis'
p4201
(lp4202
F2.0
aF4.0
asS'navigation'
p4203
(lp4204
I0
aF1.0
asS'deadly_sin'
p4205
(lp4206
I0
aF1.0
asS'comeback'
p4207
(lp4208
I0
aF2.0
asS'spark'
p4209
(lp4210
F4.0
aF3.0
asS'impromptu'
p4211
(lp4212
I0
aF1.0
asS'tug'
p4213
(lp4214
I0
aF1.0
asS'reaction'
p4215
(lp4216
F10.0
aF45.0
asS'ossification'
p4217
(lp4218
I0
aF6.0
asS'installation'
p4219
(lp4220
F3.0
aF4.0
asS'necropsy'
p4221
(lp4222
I0
aF1.0
asS'career'
p4223
(lp4224
I0
aF30.0
asS'residence'
p4225
(lp4226
F14.0
aF2.0
asS'emergency'
p4227
(lp4228
F1.0
aF9.0
asS'quiet'
p4229
(lp4230
F2.0
aF1.0
asS'contract'
p4231
(lp4232
F19.0
aF2.0
asS'restroom'
p4233
(lp4234
I0
aF1.0
asS'deduction'
p4235
(lp4236
F13.0
aF2.0
asS'propagation'
p4237
(lp4238
I0
aF2.0
asS'tour'
p4239
(lp4240
F1.0
aF2.0
asS'spatter'
p4241
(lp4242
I0
aF1.0
asS'disappointment'
p4243
(lp4244
I0
aF6.0
asS'orchestration'
p4245
(lp4246
F3.0
aF1.0
asS'volley'
p4247
(lp4248
I0
aF3.0
asS'passing'
p4249
(lp4250
I0
aF8.0
asS'face_lifting'
p4251
(lp4252
I0
aF1.0
asS'expression'
p4253
(lp4254
F34.0
aF13.0
asS'grounds'
p4255
(lp4256
F12.0
aF1.0
asS'comment'
p4257
(lp4258
F1.0
aF25.0
asS'gasp'
p4259
(lp4260
I0
aF3.0
asS'hold'
p4261
(lp4262
F4.0
aF2.0
asS'provocation'
p4263
(lp4264
I0
aF1.0
asS'characterization'
p4265
(lp4266
I0
aF4.0
asS'firewall'
p4267
(lp4268
I0
aF1.0
asS'continuation'
p4269
(lp4270
I0
aF2.0
asS'fostering'
p4271
(lp4272
I0
aF1.0
asS'disservice'
p4273
(lp4274
I0
aF1.0
asS'teasing'
p4275
(lp4276
I0
aF1.0
asS'melting'
p4277
(lp4278
I0
aF1.0
asS'snowfall'
p4279
(lp4280
I0
aF1.0
asS'adjudication'
p4281
(lp4282
I0
aF1.0
asS'accusation'
p4283
(lp4284
I0
aF3.0
asS'diminution'
p4285
(lp4286
I0
aF1.0
asS'exploit'
p4287
(lp4288
I0
aF2.0
asS'assent'
p4289
(lp4290
I0
aF2.0
asS'approval'
p4291
(lp4292
F4.0
aF11.0
asS'chain_reaction'
p4293
(lp4294
I0
aF2.0
asS'dislocation'
p4295
(lp4296
I0
aF2.0
asS'winning'
p4297
(lp4298
I0
aF1.0
asS'runaway'
p4299
(lp4300
I0
aF1.0
asS'unfolding'
p4301
(lp4302
I0
aF1.0
asS'quadrupling'
p4303
(lp4304
I0
aF1.0
asS'tread'
p4305
(lp4306
I0
aF2.0
asS'testimonial'
p4307
(lp4308
F2.0
aF1.0
asS'addition'
p4309
(lp4310
F6.0
aF6.0
asS'discrimination'
p4311
(lp4312
F5.0
aF6.0
asS'conceptualization'
p4313
(lp4314
I0
aF1.0
asS'quaver'
p4315
(lp4316
I0
aF1.0
asS'coaching'
p4317
(lp4318
I0
aF1.0
asS'quiz'
p4319
(lp4320
I0
aF2.0
asS'breath'
p4321
(lp4322
F11.0
aF9.0
asS'sewage_disposal'
p4323
(lp4324
I0
aF2.0
asS'incubation'
p4325
(lp4326
I0
aF1.0
asS'workshop'
p4327
(lp4328
F6.0
aF2.0
asS'one-upmanship'
p4329
(lp4330
I0
aF1.0
asS'combat'
p4331
(lp4332
I0
aF13.0
asS'proposal'
p4333
(lp4334
F1.0
aF16.0
asS'waste'
p4335
(lp4336
F6.0
aF4.0
asS'reflex'
p4337
(lp4338
I0
aF5.0
asS'turning_point'
p4339
(lp4340
I0
aF1.0
asS'direction'
p4341
(lp4342
F47.0
aF4.0
asS'awarding'
p4343
(lp4344
I0
aF1.0
asS'transportation'
p4345
(lp4346
F7.0
aF5.0
asS'storm'
p4347
(lp4348
F2.0
aF6.0
asS'transfusion'
p4349
(lp4350
I0
aF1.0
asS'tap'
p4351
(lp4352
I0
aF3.0
asS'replenishment'
p4353
(lp4354
I0
aF1.0
asS'osmotic_pressure'
p4355
(lp4356
I0
aF3.0
asS'cloudburst'
p4357
(lp4358
I0
aF1.0
asS'finale'
p4359
(lp4360
F2.0
aF4.0
asS'scrutiny'
p4361
(lp4362
I0
aF4.0
asS'flurry'
p4363
(lp4364
I0
aF1.0
asS'airflow'
p4365
(lp4366
I0
aF1.0
asS'expenditure'
p4367
(lp4368
F20.0
aF2.0
asS'mail'
p4369
(lp4370
F3.0
aF2.0
asS'smoking'
p4371
(lp4372
I0
aF1.0
asS'atlanta'
p4373
(lp4374
F7.0
aF1.0
asS'repetition'
p4375
(lp4376
F1.0
aF9.0
asS'odyssey'
p4377
(lp4378
I0
aF1.0
asS'last_rites'
p4379
(lp4380
I0
aF1.0
asS'quotation'
p4381
(lp4382
I0
aF1.0
asS'sound'
p4383
(lp4384
F43.0
aF14.0
asS'resumption'
p4385
(lp4386
I0
aF1.0
asS'photochemical_exchange'
p4387
(lp4388
I0
aF3.0
asS'defining'
p4389
(lp4390
I0
aF1.0
asS'mount'
p4391
(lp4392
F4.0
aF1.0
asS'ejection'
p4393
(lp4394
I0
aF2.0
asS'incursion'
p4395
(lp4396
I0
aF1.0
asS'divorce'
p4397
(lp4398
I0
aF8.0
asS'whiff'
p4399
(lp4400
I0
aF1.0
asS'trick'
p4401
(lp4402
F1.0
aF5.0
asS'warning'
p4403
(lp4404
I0
aF20.0
asS'value_statement'
p4405
(lp4406
I0
aF1.0
asS'rbi'
p4407
(lp4408
I0
aF1.0
asS'drugging'
p4409
(lp4410
I0
aF1.0
asS'investigating'
p4411
(lp4412
I0
aF1.0
asS'fm'
p4413
(lp4414
I0
aF1.0
asS'landslide'
p4415
(lp4416
I0
aF2.0
asS'fielding'
p4417
(lp4418
I0
aF1.0
asS'seepage'
p4419
(lp4420
I0
aF1.0
asS'program'
p4421
(lp4422
F39.0
aF111.0
asS'premiere'
p4423
(lp4424
I0
aF1.0
asS'layoff'
p4425
(lp4426
I0
aF2.0
asS'orientation'
p4427
(lp4428
F1.0
aF2.0
asS'dissent'
p4429
(lp4430
I0
aF2.0
asS'diversification'
p4431
(lp4432
I0
aF1.0
asS'surveying'
p4433
(lp4434
I0
aF1.0
asS'hobby'
p4435
(lp4436
I0
aF2.0
asS'encouragement'
p4437
(lp4438
I0
aF2.0
asS'lust'
p4439
(lp4440
I0
aF2.0
asS'strain'
p4441
(lp4442
F10.0
aF5.0
asS'makeready'
p4443
(lp4444
I0
aF1.0
asS'pressing'
p4445
(lp4446
I0
aF1.0
asS'embrace'
p4447
(lp4448
I0
aF1.0
asS'law-breaking'
p4449
(lp4450
I0
aF1.0
asS'last_resort'
p4451
(lp4452
I0
aF1.0
asS'junction'
p4453
(lp4454
F1.0
aF1.0
asS'convection'
p4455
(lp4456
I0
aF2.0
asS'thud'
p4457
(lp4458
I0
aF1.0
asS'demolition'
p4459
(lp4460
I0
aF1.0
asS'finance'
p4461
(lp4462
I0
aF2.0
asS'ransom'
p4463
(lp4464
F1.0
aF1.0
asS'capture'
p4465
(lp4466
I0
aF3.0
asS'inquest'
p4467
(lp4468
I0
aF1.0
asS'attorney_general'
p4469
(lp4470
F4.0
aF1.0
asS'combination'
p4471
(lp4472
F18.0
aF2.0
asS'going-over'
p4473
(lp4474
I0
aF1.0
asS'rumor'
p4475
(lp4476
I0
aF7.0
asS'donation'
p4477
(lp4478
F2.0
aF1.0
asS'radiation'
p4479
(lp4480
F31.0
aF15.0
asS'surveillance'
p4481
(lp4482
I0
aF2.0
asS'retailing'
p4483
(lp4484
I0
aF4.0
asS'compiling'
p4485
(lp4486
I0
aF1.0
asS'inquiry'
p4487
(lp4488
I0
aF9.0
asS'pushup'
p4489
(lp4490
I0
aF6.0
asS'digging'
p4491
(lp4492
I0
aF1.0
asS'lengthening'
p4493
(lp4494
I0
aF1.0
asS'party'
p4495
(lp4496
F55.0
aF6.0
asS'clapping'
p4497
(lp4498
I0
aF2.0
asS'way_of_life'
p4499
(lp4500
I0
aF11.0
asS'safe-conduct'
p4501
(lp4502
I0
aF1.0
asS'inflation'
p4503
(lp4504
I0
aF1.0
asS'popularity_contest'
p4505
(lp4506
I0
aF1.0
asS'electromyography'
p4507
(lp4508
I0
aF1.0
asS'world_premiere'
p4509
(lp4510
I0
aF1.0
asS'persona'
p4511
(lp4512
I0
aF1.0
asS'going_away'
p4513
(lp4514
I0
aF1.0
asS'no-hit_game'
p4515
(lp4516
I0
aF1.0
asS'fireman'
p4517
(lp4518
I0
aF1.0
asS'enjoyment'
p4519
(lp4520
F7.0
aF2.0
asS'interruption'
p4521
(lp4522
I0
aF6.0
asS'drink'
p4523
(lp4524
F23.0
aF4.0
asS'pronouncement'
p4525
(lp4526
I0
aF3.0
asS'effect'
p4527
(lp4528
F19.0
aF97.0
asS'doppler_effect'
p4529
(lp4530
I0
aF1.0
asS'zoning'
p4531
(lp4532
I0
aF1.0
asS'allocation'
p4533
(lp4534
F1.0
aF1.0
asS'absorption'
p4535
(lp4536
I0
aF7.0
asS'running'
p4537
(lp4538
I0
aF4.0
asS'fruit'
p4539
(lp4540
F12.0
aF2.0
asS'issuance'
p4541
(lp4542
I0
aF1.0
asS'spree'
p4543
(lp4544
I0
aF4.0
asS'judgment'
p4545
(lp4546
F23.0
aF14.0
asS'swallow'
p4547
(lp4548
F2.0
aF1.0
asS'single'
p4549
(lp4550
I0
aF7.0
asS'by-product'
p4551
(lp4552
F2.0
aF4.0
asS'american_dream'
p4553
(lp4554
I0
aF1.0
asS'longing'
p4555
(lp4556
I0
aF3.0
asS'transaction'
p4557
(lp4558
I0
aF2.0
asS'theater'
p4559
(lp4560
F7.0
aF3.0
asS'reflection'
p4561
(lp4562
F7.0
aF7.0
asS'snow'
p4563
(lp4564
F11.0
aF13.0
asS'mention'
p4565
(lp4566
I0
aF9.0
asS'walkover'
p4567
(lp4568
I0
aF1.0
asS'weapon'
p4569
(lp4570
F23.0
aF1.0
asS'overcast'
p4571
(lp4572
I0
aF6.0
asS'chastisement'
p4573
(lp4574
I0
aF1.0
asS'recital'
p4575
(lp4576
I0
aF1.0
asS'fighting'
p4577
(lp4578
I0
aF4.0
asS'thought'
p4579
(lp4580
F52.0
aF15.0
asS'procurement'
p4581
(lp4582
I0
aF8.0
asS'breeze'
p4583
(lp4584
I0
aF6.0
asS'depredation'
p4585
(lp4586
I0
aF2.0
asS'relief'
p4587
(lp4588
F23.0
aF8.0
asS'hazard'
p4589
(lp4590
F3.0
aF1.0
asS'therapy'
p4591
(lp4592
I0
aF7.0
asS'batting'
p4593
(lp4594
I0
aF2.0
asS'instillation'
p4595
(lp4596
I0
aF1.0
asS'drawing'
p4597
(lp4598
F12.0
aF2.0
asS'meet'
p4599
(lp4600
I0
aF4.0
asS'negotiation'
p4601
(lp4602
I0
aF2.0
asS'choreography'
p4603
(lp4604
I0
aF2.0
asS'negligence'
p4605
(lp4606
I0
aF2.0
asS'softening'
p4607
(lp4608
I0
aF1.0
asS'aeration'
p4609
(lp4610
I0
aF5.0
asS'transmitting'
p4611
(lp4612
I0
aF1.0
asS'storage'
p4613
(lp4614
F1.0
aF8.0
asS'milestone'
p4615
(lp4616
F2.0
aF1.0
asS'keeping'
p4617
(lp4618
I0
aF2.0
asS'rest'
p4619
(lp4620
F46.0
aF3.0
asS'foot'
p4621
(lp4622
F152.0
aF1.0
asS'kill'
p4623
(lp4624
I0
aF4.0
asS'thermometry'
p4625
(lp4626
I0
aF2.0
asS'ping-pong'
p4627
(lp4628
I0
aF1.0
asS'touch'
p4629
(lp4630
F6.0
aF13.0
asS'speed'
p4631
(lp4632
F29.0
aF2.0
asS'coordination'
p4633
(lp4634
F1.0
aF1.0
asS'distress'
p4635
(lp4636
F5.0
aF1.0
asS'blow'
p4637
(lp4638
I0
aF12.0
asS'announcement'
p4639
(lp4640
I0
aF6.0
asS'death'
p4641
(lp4642
F37.0
aF70.0
asS'rain_dance'
p4643
(lp4644
I0
aF1.0
asS'application'
p4645
(lp4646
I0
aF29.0
asS'thinking'
p4647
(lp4648
I0
aF11.0
asS'life_class'
p4649
(lp4650
I0
aF3.0
asS'line_of_work'
p4651
(lp4652
I0
aF1.0
asS'bell'
p4653
(lp4654
F11.0
aF1.0
asS'improvement'
p4655
(lp4656
F4.0
aF14.0
asS'grounder'
p4657
(lp4658
I0
aF1.0
asS'instrument'
p4659
(lp4660
F24.0
aF4.0
asS'adoption'
p4661
(lp4662
I0
aF2.0
asS'treatment'
p4663
(lp4664
F4.0
aF55.0
asS'crack'
p4665
(lp4666
F6.0
aF1.0
asS'waking_up'
p4667
(lp4668
I0
aF1.0
asS'half_gainer'
p4669
(lp4670
I0
aF1.0
asS'kick'
p4671
(lp4672
F1.0
aF3.0
asS'grip'
p4673
(lp4674
F3.0
aF7.0
asS'canter'
p4675
(lp4676
I0
aF1.0
asS'defection'
p4677
(lp4678
I0
aF1.0
asS'clutch'
p4679
(lp4680
F1.0
aF1.0
asS'laundering'
p4681
(lp4682
I0
aF1.0
asS'fate'
p4683
(lp4684
F2.0
aF8.0
asS'disappearance'
p4685
(lp4686
I0
aF6.0
asS'taunt'
p4687
(lp4688
I0
aF2.0
asS'swig'
p4689
(lp4690
I0
aF1.0
asS'gossip'
p4691
(lp4692
I0
aF3.0
asS'term'
p4693
(lp4694
F49.0
aF6.0
asS'leapfrog'
p4695
(lp4696
I0
aF2.0
asS'test'
p4697
(lp4698
F4.0
aF32.0
asS'haul'
p4699
(lp4700
I0
aF1.0
asS'inhibition'
p4701
(lp4702
F2.0
aF3.0
asS'traffic'
p4703
(lp4704
F13.0
aF1.0
asS'dispatch'
p4705
(lp4706
F3.0
aF1.0
asS'justice'
p4707
(lp4708
F17.0
aF6.0
asS'symbolism'
p4709
(lp4710
F1.0
aF1.0
asS'turbulence'
p4711
(lp4712
I0
aF1.0
asS'part'
p4713
(lp4714
F181.0
aF20.0
asS'execution'
p4715
(lp4716
I0
aF6.0
asS'name'
p4717
(lp4718
F100.0
aF1.0
asS'shoot-down'
p4719
(lp4720
I0
aF2.0
asS'loss'
p4721
(lp4722
F22.0
aF21.0
asS'frolic'
p4723
(lp4724
I0
aF1.0
asS'fortune'
p4725
(lp4726
F3.0
aF4.0
asS'success'
p4727
(lp4728
F12.0
aF53.0
asS'motion_picture'
p4729
(lp4730
I0
aF9.0
asS'fishing'
p4731
(lp4732
I0
aF5.0
asS'hell_raising'
p4733
(lp4734
I0
aF1.0
asS'miracle'
p4735
(lp4736
I0
aF6.0
asS'roll'
p4737
(lp4738
F3.0
aF3.0
asS'commercialization'
p4739
(lp4740
I0
aF1.0
asS'tsunami'
p4741
(lp4742
I0
aF22.0
asS'dereliction'
p4743
(lp4744
F1.0
aF1.0
asS'physical_phenomenon'
p4745
(lp4746
I0
aF2.0
asS'robbery'
p4747
(lp4748
I0
aF3.0
asS'drainage'
p4749
(lp4750
I0
aF3.0
asS'output'
p4751
(lp4752
F6.0
aF2.0
asS'travelogue'
p4753
(lp4754
I0
aF1.0
asS'works'
p4755
(lp4756
F6.0
aF1.0
asS'clap'
p4757
(lp4758
I0
aF2.0
asS'replacement'
p4759
(lp4760
F3.0
aF6.0
asS'amendment'
p4761
(lp4762
F1.0
aF6.0
asS'conditioned_response'
p4763
(lp4764
I0
aF1.0
asS'interest'
p4765
(lp4766
F136.0
aF3.0
asS'liquidation'
p4767
(lp4768
I0
aF3.0
asS'screen_pass'
p4769
(lp4770
I0
aF1.0
asS'professorship'
p4771
(lp4772
I0
aF1.0
asS'temperature_change'
p4773
(lp4774
I0
aF1.0
asS'dispossession'
p4775
(lp4776
I0
aF1.0
asS'scuffle'
p4777
(lp4778
I0
aF1.0
asS'authority'
p4779
(lp4780
F29.0
aF1.0
asS'growth'
p4781
(lp4782
F2.0
aF60.0
asS'gymnastics'
p4783
(lp4784
I0
aF11.0
asS'deliverance'
p4785
(lp4786
I0
aF1.0
asS'recommendation'
p4787
(lp4788
I0
aF26.0
asS'diving'
p4789
(lp4790
I0
aF1.0
asS'hissing'
p4791
(lp4792
I0
aF2.0
asS'french_revolution'
p4793
(lp4794
I0
aF4.0
asS'ballot'
p4795
(lp4796
F3.0
aF1.0
asS'drizzle'
p4797
(lp4798
I0
aF5.0
asS'transport'
p4799
(lp4800
F3.0
aF2.0
asS'acrobatics'
p4801
(lp4802
I0
aF1.0
asS'poll'
p4803
(lp4804
I0
aF4.0
asS'primary'
p4805
(lp4806
F1.0
aF3.0
asS'lead'
p4807
(lp4808
F18.0
aF3.0
asS'red_herring'
p4809
(lp4810
I0
aF1.0
asS'self-effacement'
p4811
(lp4812
I0
aF1.0
asS'hurricane'
p4813
(lp4814
I0
aF2.0
asS'filling'
p4815
(lp4816
F4.0
aF2.0
asS'pathogenesis'
p4817
(lp4818
I0
aF1.0
asS'seaquake'
p4819
(lp4820
I0
aF1.0
asS'depletion'
p4821
(lp4822
I0
aF2.0
asS'petting'
p4823
(lp4824
I0
aF1.0
asS'escort'
p4825
(lp4826
F2.0
aF1.0
asS'passion'
p4827
(lp4828
F3.0
aF1.0
asS'sorption'
p4829
(lp4830
I0
aF2.0
asS'self-sacrifice'
p4831
(lp4832
I0
aF1.0
asS'compulsion'
p4833
(lp4834
F4.0
aF1.0
asS'public_lecture'
p4835
(lp4836
I0
aF1.0
asS'victory'
p4837
(lp4838
I0
aF35.0
asS'measuring'
p4839
(lp4840
I0
aF1.0
asS'philosophizing'
p4841
(lp4842
I0
aF1.0
asS'squabble'
p4843
(lp4844
I0
aF1.0
asS'assembly'
p4845
(lp4846
F4.0
aF3.0
asS'skeet'
p4847
(lp4848
I0
aF1.0
asS'business'
p4849
(lp4850
F55.0
aF39.0
asS'schedule'
p4851
(lp4852
F5.0
aF11.0
asS'dissection'
p4853
(lp4854
I0
aF2.0
asS'world_war_ii'
p4855
(lp4856
I0
aF2.0
asS'expansion'
p4857
(lp4858
I0
aF10.0
asS'grant-in-aid'
p4859
(lp4860
I0
aF1.0
asS'sedimentation'
p4861
(lp4862
I0
aF2.0
asS'epidemic'
p4863
(lp4864
I0
aF5.0
asS'leadership'
p4865
(lp4866
F13.0
aF9.0
asS'vigilantism'
p4867
(lp4868
I0
aF1.0
asS'misrepresentation'
p4869
(lp4870
I0
aF1.0
asS'throw'
p4871
(lp4872
F1.0
aF4.0
asS'hiding'
p4873
(lp4874
I0
aF2.0
asS'comparison'
p4875
(lp4876
F8.0
aF15.0
asS'rationing'
p4877
(lp4878
I0
aF2.0
asS'playacting'
p4879
(lp4880
I0
aF1.0
asS'extension'
p4881
(lp4882
F13.0
aF14.0
asS'exacerbation'
p4883
(lp4884
I0
aF3.0
asS'washup'
p4885
(lp4886
I0
aF1.0
asS'industry'
p4887
(lp4888
F56.0
aF15.0
asS'headstand'
p4889
(lp4890
I0
aF2.0
asS'label'
p4891
(lp4892
F4.0
aF3.0
asS'shipping'
p4893
(lp4894
I0
aF4.0
asS'due_process'
p4895
(lp4896
I0
aF5.0
asS'ideology'
p4897
(lp4898
F4.0
aF1.0
asS'stretch'
p4899
(lp4900
F3.0
aF6.0
asS'rodeo'
p4901
(lp4902
I0
aF2.0
asS'restoration'
p4903
(lp4904
F1.0
aF2.0
asS'baseball_game'
p4905
(lp4906
I0
aF2.0
asS'stand'
p4907
(lp4908
F13.0
aF1.0
asS'rumpus'
p4909
(lp4910
I0
aF1.0
asS'act'
p4911
(lp4912
F50.0
aF23.0
asS'concession'
p4913
(lp4914
F2.0
aF1.0
asS'bond'
p4915
(lp4916
F19.0
aF15.0
asS'documentary'
p4917
(lp4918
I0
aF5.0
asS'road'
p4919
(lp4920
F71.0
aF1.0
asS'swimming'
p4921
(lp4922
I0
aF1.0
asS'checkup'
p4923
(lp4924
I0
aF1.0
asS'stratagem'
p4925
(lp4926
I0
aF1.0
asS'miscegenation'
p4927
(lp4928
I0
aF1.0
asS'burning'
p4929
(lp4930
I0
aF1.0
asS'burial'
p4931
(lp4932
I0
aF5.0
asS'trot'
p4933
(lp4934
I0
aF1.0
asS'communication'
p4935
(lp4936
F11.0
aF25.0
asS'paso_doble'
p4937
(lp4938
I0
aF1.0
asS'anachronism'
p4939
(lp4940
F1.0
aF1.0
asS'human_action'
p4941
(lp4942
I0
aF1.0
asS'commitment'
p4943
(lp4944
F2.0
aF3.0
asS'gastronomy'
p4945
(lp4946
I0
aF1.0
asS'struggle'
p4947
(lp4948
I0
aF16.0
asS'weather'
p4949
(lp4950
I0
aF20.0
asS'involvement'
p4951
(lp4952
F2.0
aF4.0
asS'restatement'
p4953
(lp4954
I0
aF4.0
asS'shipbuilding'
p4955
(lp4956
I0
aF1.0
asS'discharge'
p4957
(lp4958
I0
aF18.0
asS'confession'
p4959
(lp4960
F4.0
aF1.0
asS'portrayal'
p4961
(lp4962
I0
aF2.0
asS'proteolysis'
p4963
(lp4964
I0
aF2.0
asS'shoe_repairing'
p4965
(lp4966
I0
aF1.0
asS'utility'
p4967
(lp4968
F7.0
aF1.0
asS'stare'
p4969
(lp4970
I0
aF4.0
asS'birth_control'
p4971
(lp4972
I0
aF12.0
asS'grassfire'
p4973
(lp4974
I0
aF1.0
asS'commission'
p4975
(lp4976
F28.0
aF1.0
asS'exhortation'
p4977
(lp4978
I0
aF1.0
asS'transfer'
p4979
(lp4980
F2.0
aF21.0
asS'outline'
p4981
(lp4982
F3.0
aF3.0
asS'independence'
p4983
(lp4984
F22.0
aF1.0
asS'disapproval'
p4985
(lp4986
F6.0
aF1.0
asS'galvanism'
p4987
(lp4988
I0
aF1.0
asS'sampling'
p4989
(lp4990
I0
aF4.0
asS'start'
p4991
(lp4992
F4.0
aF13.0
asS'stealth'
p4993
(lp4994
I0
aF1.0
asS'gaze'
p4995
(lp4996
I0
aF6.0
asS'frustration'
p4997
(lp4998
I0
aF5.0
asS'secretion'
p4999
(lp5000
F1.0
aF3.0
asS'chewing_out'
p5001
(lp5002
I0
aF1.0
asS'squeal'
p5003
(lp5004
I0
aF1.0
asS'sallying_forth'
p5005
(lp5006
I0
aF1.0
asS'quackery'
p5007
(lp5008
I0
aF6.0
asS'function'
p5009
(lp5010
F67.0
aF7.0
asS'shower'
p5011
(lp5012
F5.0
aF5.0
asS'western'
p5013
(lp5014
I0
aF1.0
asS'sweet_nothings'
p5015
(lp5016
I0
aF1.0
asS'mischief'
p5017
(lp5018
I0
aF3.0
asS'maintenance'
p5019
(lp5020
F1.0
aF6.0
asS'merrymaking'
p5021
(lp5022
I0
aF1.0
asS'inroad'
p5023
(lp5024
I0
aF1.0
asS'regard'
p5025
(lp5026
F6.0
aF1.0
asS'medium'
p5027
(lp5028
F10.0
aF2.0
asS'idea'
p5029
(lp5030
F150.0
aF1.0
asS'delivery'
p5031
(lp5032
I0
aF3.0
asS'landscaping'
p5033
(lp5034
I0
aF1.0
asS'construction'
p5035
(lp5036
F6.0
aF28.0
asS'misdeed'
p5037
(lp5038
I0
aF2.0
asS'merger'
p5039
(lp5040
I0
aF6.0
asS'elimination'
p5041
(lp5042
I0
aF3.0
asS'overflow'
p5043
(lp5044
I0
aF1.0
asS'candidacy'
p5045
(lp5046
I0
aF1.0
asS'population_shift'
p5047
(lp5048
I0
aF4.0
asS'whirring'
p5049
(lp5050
I0
aF1.0
asS'delineation'
p5051
(lp5052
I0
aF1.0
asS'count'
p5053
(lp5054
F4.0
aF3.0
asS'pull'
p5055
(lp5056
F2.0
aF6.0
asS'rush'
p5057
(lp5058
I0
aF3.0
asS'fraud'
p5059
(lp5060
F2.0
aF7.0
asS'circulation'
p5061
(lp5062
I0
aF5.0
asS'monopoly'
p5063
(lp5064
F2.0
aF5.0
asS'default'
p5065
(lp5066
I0
aF1.0
asS'wish'
p5067
(lp5068
I0
aF8.0
asS'politics'
p5069
(lp5070
F24.0
aF3.0
asS'phase'
p5071
(lp5072
F25.0
aF22.0
asS'reinforcement'
p5073
(lp5074
I0
aF4.0
asS'doweling'
p5075
(lp5076
I0
aF1.0
asS'excitement'
p5077
(lp5078
F7.0
aF5.0
asS'record'
p5079
(lp5080
F60.0
aF8.0
asS'ruling'
p5081
(lp5082
I0
aF4.0
asS'jabbing'
p5083
(lp5084
I0
aF1.0
asS'scrutin_de_liste_system'
p5085
(lp5086
I0
aF1.0
asS'quickie'
p5087
(lp5088
I0
aF1.0
asS'distribution'
p5089
(lp5090
F37.0
aF11.0
asS'lightning'
p5091
(lp5092
I0
aF8.0
asS'inoculation'
p5093
(lp5094
I0
aF2.0
asS'display'
p5095
(lp5096
F4.0
aF3.0
asS'urging'
p5097
(lp5098
I0
aF2.0
asS'due_process_of_law'
p5099
(lp5100
I0
aF1.0
asS'mechanics'
p5101
(lp5102
F3.0
aF2.0
asS'civil_defense'
p5103
(lp5104
I0
aF3.0
asS'marketplace'
p5105
(lp5106
F2.0
aF3.0
asS'bodily_function'
p5107
(lp5108
I0
aF1.0
asS'deliberation'
p5109
(lp5110
I0
aF1.0
asS'taste'
p5111
(lp5112
F18.0
aF1.0
asS'mask'
p5113
(lp5114
F1.0
aF1.0
asS'slippage'
p5115
(lp5116
I0
aF1.0
asS'stealing'
p5117
(lp5118
I0
aF1.0
asS'life'
p5119
(lp5120
F231.0
aF3.0
asS'dissemination'
p5121
(lp5122
I0
aF1.0
asS'twist'
p5123
(lp5124
I0
aF7.0
asS'crusade'
p5125
(lp5126
I0
aF3.0
asS'vicious_cycle'
p5127
(lp5128
I0
aF1.0
asS'cartwheel'
p5129
(lp5130
F1.0
aF1.0
asS'pushing'
p5131
(lp5132
I0
aF1.0
asS'formulation'
p5133
(lp5134
F12.0
aF2.0
asS'disengagement'
p5135
(lp5136
I0
aF1.0
asS'shopping'
p5137
(lp5138
I0
aF8.0
asS'deed'
p5139
(lp5140
F1.0
aF2.0
asS'education'
p5141
(lp5142
F14.0
aF39.0
asS'dawn'
p5143
(lp5144
F10.0
aF1.0
asS'film'
p5145
(lp5146
F26.0
aF38.0
asS'law'
p5147
(lp5148
F90.0
aF2.0
asS'kerygma'
p5149
(lp5150
I0
aF3.0
asS'planting'
p5151
(lp5152
I0
aF2.0
asS'tick'
p5153
(lp5154
F1.0
aF2.0
asS'test_suit'
p5155
(lp5156
I0
aF1.0
asS'noise'
p5157
(lp5158
F1.0
aF15.0
asS'castigation'
p5159
(lp5160
I0
aF1.0
asS'glint'
p5161
(lp5162
I0
aF1.0
asS'lashing'
p5163
(lp5164
I0
aF1.0
asS'detail'
p5165
(lp5166
F33.0
aF9.0
asS'enclosure'
p5167
(lp5168
F2.0
aF1.0
asS'field'
p5169
(lp5170
F88.0
aF23.0
asS'housework'
p5171
(lp5172
I0
aF1.0
asS'intrigue'
p5173
(lp5174
I0
aF1.0
asS'lookup'
p5175
(lp5176
I0
aF8.0
asS'boom'
p5177
(lp5178
I0
aF2.0
asS'reassurance'
p5179
(lp5180
I0
aF4.0
asS'redeposition'
p5181
(lp5182
I0
aF2.0
asS'gambling'
p5183
(lp5184
I0
aF4.0
asS'illusion'
p5185
(lp5186
F28.0
aF1.0
asS'conclusion'
p5187
(lp5188
F36.0
aF2.0
asS'deviation'
p5189
(lp5190
F1.0
aF2.0
asS'desecration'
p5191
(lp5192
I0
aF1.0
asS'repeat'
p5193
(lp5194
I0
aF2.0
asS'offensive'
p5195
(lp5196
I0
aF1.0
asS'draught'
p5197
(lp5198
I0
aF1.0
asS'crime'
p5199
(lp5200
I0
aF17.0
asS'oppression'
p5201
(lp5202
I0
aF1.0
asS'gunplay'
p5203
(lp5204
I0
aF1.0
asS'drift'
p5205
(lp5206
I0
aF4.0
asS'vignette'
p5207
(lp5208
I0
aF1.0
asS'stay'
p5209
(lp5210
I0
aF2.0
asS'push'
p5211
(lp5212
I0
aF5.0
asS'chance'
p5213
(lp5214
F38.0
aF9.0
asS'combat_mission'
p5215
(lp5216
I0
aF1.0
asS'masterpiece'
p5217
(lp5218
F4.0
aF2.0
asS'squeak'
p5219
(lp5220
I0
aF1.0
asS'water_project'
p5221
(lp5222
I0
aF1.0
asS'repeal'
p5223
(lp5224
I0
aF1.0
asS'exposure'
p5225
(lp5226
F8.0
aF5.0
asS'building'
p5227
(lp5228
F48.0
aF4.0
asS'gavotte'
p5229
(lp5230
I0
aF1.0
asS'subdivision'
p5231
(lp5232
F3.0
aF2.0
asS'applause'
p5233
(lp5234
I0
aF9.0
asS'yelp'
p5235
(lp5236
I0
aF1.0
asS'ecclesiasticism'
p5237
(lp5238
I0
aF1.0
asS'degeneration'
p5239
(lp5240
I0
aF1.0
asS'necrosis'
p5241
(lp5242
I0
aF3.0
asS'horse_race'
p5243
(lp5244
I0
aF2.0
asS'world_record'
p5245
(lp5246
I0
aF2.0
asS'clowning'
p5247
(lp5248
I0
aF1.0
asS'titration'
p5249
(lp5250
I0
aF1.0
asS'excretion'
p5251
(lp5252
I0
aF1.0
asS'requisition'
p5253
(lp5254
I0
aF1.0
asS'mass'
p5255
(lp5256
F50.0
aF10.0
asS'procedure'
p5257
(lp5258
I0
aF55.0
asS'diagnosis'
p5259
(lp5260
I0
aF4.0
asS'embracing'
p5261
(lp5262
I0
aF1.0
asS'tapping'
p5263
(lp5264
I0
aF2.0
asS'playoff_game'
p5265
(lp5266
I0
aF2.0
asS'validation'
p5267
(lp5268
I0
aF1.0
asS'resolution'
p5269
(lp5270
F13.0
aF5.0
asS'activism'
p5271
(lp5272
I0
aF2.0
asS'presentment'
p5273
(lp5274
I0
aF1.0
asS'surge'
p5275
(lp5276
I0
aF4.0
as.