(lp1
(iFSA
FSA
(dp2
S'fsaname'
p3
NsS'finalStates'
p4
(lp5
I2
asS'alphabet'
p6
NsS'_isTrimmed'
p7
I1
sS'label'
p8
S'[_{_\'_t_e_x_t_\'_:_ _(_\'_^_\'_,_ _[_\'_a_\'_,_ _\'_a_n_\'_,_ _\'_t_h_e_\'_,_ _\'_a_s_\'_]_)_,_ _\'_n_o_d_e_T_y_p_e_\'_:_ _[_\'_T_o_k_e_n_\'_,_ _\'_A_d_j_e_c_t_i_v_e_T_o_k_e_n_\'_]_,_ _\'_p_o_s_\'_:_ _[_\'_R_B_\'_,_ _\'_W_D_T_\'_,_ _\'_D_T_\'_,_ _\'_J_J_\'_,_ _\'_P_R_P_\'_]_}_,_ _\'_*_\'_,_ _\'_(_\'_,_ _{_\'_t_e_x_t_\'_:_ _\'_b_e_\'_,_ _\'_n_o_d_e_T_y_p_e_\'_:_ _\'_T_o_k_e_n_\'_,_ _\'_p_o_s_\'_:_ _[_\'_V_B_\'_,_ _\'_V_B_P_\'_]_}_,_ _{_\'_t_e_x_t_\'_:_ _(_\'_^_\'_,_ _[_\'_a_\'_,_ _\'_a_n_\'_,_ _\'_t_h_e_\'_,_ _\'_a_s_\'_]_)_,_ _\'_n_o_d_e_T_y_p_e_\'_:_ _[_\'_T_o_k_e_n_\'_,_ _\'_A_d_j_e_c_t_i_v_e_T_o_k_e_n_\'_]_,_ _\'_p_o_s_\'_:_ _[_\'_R_B_\'_,_ _\'_W_D_T_\'_,_ _\'_D_T_\'_,_ _\'_J_J_\'_,_ _\'_P_R_P_\'_]_}_,_ _\'_*_\'_,_ _{_\'_t_e_x_t_\'_:_ _\'_g_o_i_n_g_\'_,_ _\'_n_o_d_e_T_y_p_e_\'_:_ _\'_T_o_k_e_n_\'_}_,_ _{_\'_t_e_x_t_\'_:_ _\'_t_o_\'_,_ _\'_n_o_d_e_T_y_p_e_\'_:_ _\'_T_o_k_e_n_\'_}_,_ _\'_|_\'_,_ _{_\'_t_e_x_t_\'_:_ _[_\'_n_o_t_\'_,_ _"_n_\'_t_"_,_ _\'_n_e_i_t_h_e_r_\'_]_,_ _\'_n_o_d_e_T_y_p_e_\'_:_ _\'_T_o_k_e_n_\'_}_,_ _\'_|_\'_,_ _{_\'_t_e_x_t_\'_:_ _\'_h_a_v_e_\'_,_ _\'_n_o_d_e_T_y_p_e_\'_:_ _\'_T_o_k_e_n_\'_,_ _\'_p_o_s_\'_:_ _[_\'_V_B_\'_,_ _\'_V_B_P_\'_]_}_,_ _{_\'_t_e_x_t_\'_:_ _\'_h_a_d_\'_,_ _\'_n_o_d_e_T_y_p_e_\'_:_ _\'_T_o_k_e_n_\'_}_,_ _\'_?_\'_,_ _{_\'_t_e_x_t_\'_:_ _\'_t_o_\'_,_ _\'_n_o_d_e_T_y_p_e_\'_:_ _\'_T_o_k_e_n_\'_}_,_ _\'_|_\'_,_ _{_\'_t_e_x_t_\'_:_ _\'_,_\'_,_ _\'_n_o_d_e_T_y_p_e_\'_:_ _\'_T_o_k_e_n_\'_}_,_ _\'_._\'_,_ _\'_._\'_,_ _\'_._\'_,_ _\'_?_\'_,_ _\'_._\'_,_ _\'_?_\'_,_ _{_\'_t_e_x_t_\'_:_ _\'_,_\'_,_ _\'_n_o_d_e_T_y_p_e_\'_:_ _\'_T_o_k_e_n_\'_}_,_ _\'_)_\'_,_ _\'_*_\'_,_ _{_\'_t_e_x_t_\'_:_ _(_\'_^_\'_,_ _[_\'_a_\'_,_ _\'_a_n_\'_,_ _\'_t_h_e_\'_,_ _\'_a_s_\'_]_)_,_ _\'_n_o_d_e_T_y_p_e_\'_:_ _[_\'_T_o_k_e_n_\'_,_ _\'_A_d_j_e_c_t_i_v_e_T_o_k_e_n_\'_]_,_ _\'_p_o_s_\'_:_ _[_\'_R_B_\'_,_ _\'_W_D_T_\'_,_ _\'_D_T_\'_,_ _\'_J_J_\'_,_ _\'_P_R_P_\'_]_}_,_ _\'_*_\'_,_ _\'_(_\'_,_ _{_\'_t_e_x_t_\'_:_ _\'_h_a_v_e_\'_,_ _\'_n_o_d_e_T_y_p_e_\'_:_ _\'_T_o_k_e_n_\'_,_ _\'_p_o_s_\'_:_ _[_\'_V_B_\'_,_ _\'_V_B_P_\'_]_}_,_ _{_\'_t_e_x_t_\'_:_ _(_\'_^_\'_,_ _[_\'_a_\'_,_ _\'_a_n_\'_,_ _\'_t_h_e_\'_,_ _\'_a_s_\'_]_)_,_ _\'_n_o_d_e_T_y_p_e_\'_:_ _[_\'_T_o_k_e_n_\'_,_ _\'_A_d_j_e_c_t_i_v_e_T_o_k_e_n_\'_]_,_ _\'_p_o_s_\'_:_ _[_\'_R_B_\'_,_ _\'_W_D_T_\'_,_ _\'_D_T_\'_,_ _\'_J_J_\'_,_ _\'_P_R_P_\'_]_}_,_ _\'_*_\'_,_ _{_\'_t_e_x_t_\'_:_ _\'_b_e_e_n_\'_,_ _\'_n_o_d_e_T_y_p_e_\'_:_ _\'_T_o_k_e_n_\'_}_,_ _{_\'_t_e_x_t_\'_:_ _(_\'_^_\'_,_ _[_\'_a_\'_,_ _\'_a_n_\'_,_ _\'_t_h_e_\'_,_ _\'_a_s_\'_]_)_,_ _\'_n_o_d_e_T_y_p_e_\'_:_ _[_\'_T_o_k_e_n_\'_,_ _\'_A_d_j_e_c_t_i_v_e_T_o_k_e_n_\'_]_,_ _\'_p_o_s_\'_:_ _[_\'_R_B_\'_,_ _\'_W_D_T_\'_,_ _\'_D_T_\'_,_ _\'_J_J_\'_,_ _\'_P_R_P_\'_]_}_,_ _\'_*_\'_,_ _{_\'_t_e_x_t_\'_:_ _\'_b_e_i_n_g_\'_,_ _\'_n_o_d_e_T_y_p_e_\'_:_ _\'_T_o_k_e_n_\'_}_,_ _{_\'_t_e_x_t_\'_:_ _(_\'_^_\'_,_ _[_\'_a_\'_,_ _\'_a_n_\'_,_ _\'_t_h_e_\'_,_ _\'_a_s_\'_]_)_,_ _\'_n_o_d_e_T_y_p_e_\'_:_ _[_\'_T_o_k_e_n_\'_,_ _\'_A_d_j_e_c_t_i_v_e_T_o_k_e_n_\'_]_,_ _\'_p_o_s_\'_:_ _[_\'_R_B_\'_,_ _\'_W_D_T_\'_,_ _\'_D_T_\'_,_ _\'_J_J_\'_,_ _\'_P_R_P_\'_]_}_,_ _\'_*_\'_,_ _{_\'_n_o_d_e_T_y_p_e_\'_:_ _\'_T_o_k_e_n_\'_,_ _\'_p_o_s_\'_:_ _[_\'_V_B_D_\'_,_ _\'_V_B_N_\'_]_}_,_ _\'_|_\'_,_ _{_\'_t_e_x_t_\'_:_ _\'_b_e_\'_,_ _\'_n_o_d_e_T_y_p_e_\'_:_ _\'_T_o_k_e_n_\'_,_ _\'_p_o_s_\'_:_ _[_\'_V_B_\'_,_ _\'_V_B_P_\'_]_}_,_ _{_\'_t_e_x_t_\'_:_ _(_\'_^_\'_,_ _[_\'_a_\'_,_ _\'_a_n_\'_,_ _\'_t_h_e_\'_,_ _\'_a_s_\'_]_)_,_ _\'_n_o_d_e_T_y_p_e_\'_:_ _[_\'_T_o_k_e_n_\'_,_ _\'_A_d_j_e_c_t_i_v_e_T_o_k_e_n_\'_]_,_ _\'_p_o_s_\'_:_ _[_\'_R_B_\'_,_ _\'_W_D_T_\'_,_ _\'_D_T_\'_,_ _\'_J_J_\'_,_ _\'_P_R_P_\'_]_}_,_ _\'_*_\'_,_ _{_\'_t_e_x_t_\'_:_ _\'_b_e_i_n_g_\'_,_ _\'_n_o_d_e_T_y_p_e_\'_:_ _\'_T_o_k_e_n_\'_}_,_ _{_\'_t_e_x_t_\'_:_ _(_\'_^_\'_,_ _[_\'_a_\'_,_ _\'_a_n_\'_,_ _\'_t_h_e_\'_,_ _\'_a_s_\'_]_)_,_ _\'_n_o_d_e_T_y_p_e_\'_:_ _[_\'_T_o_k_e_n_\'_,_ _\'_A_d_j_e_c_t_i_v_e_T_o_k_e_n_\'_]_,_ _\'_p_o_s_\'_:_ _[_\'_R_B_\'_,_ _\'_W_D_T_\'_,_ _\'_D_T_\'_,_ _\'_J_J_\'_,_ _\'_P_R_P_\'_]_}_,_ _\'_*_\'_,_ _{_\'_n_o_d_e_T_y_p_e_\'_:_ _\'_T_o_k_e_n_\'_,_ _\'_p_o_s_\'_:_ _[_\'_V_B_D_\'_,_ _\'_V_B_N_\'_]_}_,_ _\'_|_\'_,_ _{_\'_t_e_x_t_\'_:_ _\'_h_a_v_e_\'_,_ _\'_n_o_d_e_T_y_p_e_\'_:_ _\'_T_o_k_e_n_\'_,_ _\'_p_o_s_\'_:_ _[_\'_V_B_\'_,_ _\'_V_B_P_\'_]_}_,_ _{_\'_t_e_x_t_\'_:_ _(_\'_^_\'_,_ _[_\'_a_\'_,_ _\'_a_n_\'_,_ _\'_t_h_e_\'_,_ _\'_a_s_\'_]_)_,_ _\'_n_o_d_e_T_y_p_e_\'_:_ _[_\'_T_o_k_e_n_\'_,_ _\'_A_d_j_e_c_t_i_v_e_T_o_k_e_n_\'_]_,_ _\'_p_o_s_\'_:_ _[_\'_R_B_\'_,_ _\'_W_D_T_\'_,_ _\'_D_T_\'_,_ _\'_J_J_\'_,_ _\'_P_R_P_\'_]_}_,_ _\'_*_\'_,_ _{_\'_t_e_x_t_\'_:_ _\'_b_e_e_n_\'_,_ _\'_n_o_d_e_T_y_p_e_\'_:_ _\'_T_o_k_e_n_\'_}_,_ _{_\'_t_e_x_t_\'_:_ _(_\'_^_\'_,_ _[_\'_a_\'_,_ _\'_a_n_\'_,_ _\'_t_h_e_\'_,_ _\'_a_s_\'_]_)_,_ _\'_n_o_d_e_T_y_p_e_\'_:_ _[_\'_T_o_k_e_n_\'_,_ _\'_A_d_j_e_c_t_i_v_e_T_o_k_e_n_\'_]_,_ _\'_p_o_s_\'_:_ _[_\'_R_B_\'_,_ _\'_W_D_T_\'_,_ _\'_D_T_\'_,_ _\'_J_J_\'_,_ _\'_P_R_P_\'_]_}_,_ _\'_*_\'_,_ _{_\'_n_o_d_e_T_y_p_e_\'_:_ _\'_T_o_k_e_n_\'_,_ _\'_p_o_s_\'_:_ _[_\'_V_B_D_\'_,_ _\'_V_B_N_\'_]_}_,_ _\'_|_\'_,_ _{_\'_t_e_x_t_\'_:_ _\'_h_a_v_e_\'_,_ _\'_n_o_d_e_T_y_p_e_\'_:_ _\'_T_o_k_e_n_\'_,_ _\'_p_o_s_\'_:_ _[_\'_V_B_\'_,_ _\'_V_B_P_\'_]_}_,_ _{_\'_t_e_x_t_\'_:_ _(_\'_^_\'_,_ _[_\'_a_\'_,_ _\'_a_n_\'_,_ _\'_t_h_e_\'_,_ _\'_a_s_\'_]_)_,_ _\'_n_o_d_e_T_y_p_e_\'_:_ _[_\'_T_o_k_e_n_\'_,_ _\'_A_d_j_e_c_t_i_v_e_T_o_k_e_n_\'_]_,_ _\'_p_o_s_\'_:_ _[_\'_R_B_\'_,_ _\'_W_D_T_\'_,_ _\'_D_T_\'_,_ _\'_J_J_\'_,_ _\'_P_R_P_\'_]_}_,_ _\'_*_\'_,_ _{_\'_t_e_x_t_\'_:_ _\'_b_e_e_n_\'_,_ _\'_n_o_d_e_T_y_p_e_\'_:_ _\'_T_o_k_e_n_\'_}_,_ _{_\'_t_e_x_t_\'_:_ _(_\'_^_\'_,_ _[_\'_a_\'_,_ _\'_a_n_\'_,_ _\'_t_h_e_\'_,_ _\'_a_s_\'_]_)_,_ _\'_n_o_d_e_T_y_p_e_\'_:_ _[_\'_T_o_k_e_n_\'_,_ _\'_A_d_j_e_c_t_i_v_e_T_o_k_e_n_\'_]_,_ _\'_p_o_s_\'_:_ _[_\'_R_B_\'_,_ _\'_W_D_T_\'_,_ _\'_D_T_\'_,_ _\'_J_J_\'_,_ _\'_P_R_P_\'_]_}_,_ _\'_*_\'_,_ _{_\'_n_o_d_e_T_y_p_e_\'_:_ _\'_T_o_k_e_n_\'_,_ _\'_p_o_s_\'_:_ _\'_V_B_G_\'_}_,_ _\'_|_\'_,_ _{_\'_t_e_x_t_\'_:_ _\'_b_e_\'_,_ _\'_n_o_d_e_T_y_p_e_\'_:_ _\'_T_o_k_e_n_\'_,_ _\'_p_o_s_\'_:_ _[_\'_V_B_\'_,_ _\'_V_B_P_\'_]_}_,_ _{_\'_t_e_x_t_\'_:_ _(_\'_^_\'_,_ _[_\'_a_\'_,_ _\'_a_n_\'_,_ _\'_t_h_e_\'_,_ _\'_a_s_\'_]_)_,_ _\'_n_o_d_e_T_y_p_e_\'_:_ _[_\'_T_o_k_e_n_\'_,_ _\'_A_d_j_e_c_t_i_v_e_T_o_k_e_n_\'_]_,_ _\'_p_o_s_\'_:_ _[_\'_R_B_\'_,_ _\'_W_D_T_\'_,_ _\'_D_T_\'_,_ _\'_J_J_\'_,_ _\'_P_R_P_\'_]_}_,_ _\'_*_\'_,_ _{_\'_n_o_d_e_T_y_p_e_\'_:_ _\'_T_o_k_e_n_\'_,_ _\'_p_o_s_\'_:_ _[_\'_V_B_D_\'_,_ _\'_V_B_N_\'_]_}_,_ _\'_|_\'_,_ _{_\'_t_e_x_t_\'_:_ _\'_b_e_\'_,_ _\'_n_o_d_e_T_y_p_e_\'_:_ _\'_T_o_k_e_n_\'_,_ _\'_p_o_s_\'_:_ _[_\'_V_B_\'_,_ _\'_V_B_P_\'_]_}_,_ _{_\'_t_e_x_t_\'_:_ _(_\'_^_\'_,_ _[_\'_a_\'_,_ _\'_a_n_\'_,_ _\'_t_h_e_\'_,_ _\'_a_s_\'_]_)_,_ _\'_n_o_d_e_T_y_p_e_\'_:_ _[_\'_T_o_k_e_n_\'_,_ _\'_A_d_j_e_c_t_i_v_e_T_o_k_e_n_\'_]_,_ _\'_p_o_s_\'_:_ _[_\'_R_B_\'_,_ _\'_W_D_T_\'_,_ _\'_D_T_\'_,_ _\'_J_J_\'_,_ _\'_P_R_P_\'_]_}_,_ _\'_*_\'_,_ _{_\'_n_o_d_e_T_y_p_e_\'_:_ _\'_T_o_k_e_n_\'_,_ _\'_p_o_s_\'_:_ _\'_V_B_G_\'_}_,_ _\'_|_\'_,_ _{_\'_t_e_x_t_\'_:_ _\'_h_a_v_e_\'_,_ _\'_n_o_d_e_T_y_p_e_\'_:_ _\'_T_o_k_e_n_\'_,_ _\'_p_o_s_\'_:_ _[_\'_V_B_\'_,_ _\'_V_B_P_\'_]_}_,_ _{_\'_t_e_x_t_\'_:_ _(_\'_^_\'_,_ _[_\'_a_\'_,_ _\'_a_n_\'_,_ _\'_t_h_e_\'_,_ _\'_a_s_\'_]_)_,_ _\'_n_o_d_e_T_y_p_e_\'_:_ _[_\'_T_o_k_e_n_\'_,_ _\'_A_d_j_e_c_t_i_v_e_T_o_k_e_n_\'_]_,_ _\'_p_o_s_\'_:_ _[_\'_R_B_\'_,_ _\'_W_D_T_\'_,_ _\'_D_T_\'_,_ _\'_J_J_\'_,_ _\'_P_R_P_\'_]_}_,_ _\'_*_\'_,_ _{_\'_n_o_d_e_T_y_p_e_\'_:_ _\'_T_o_k_e_n_\'_,_ _\'_p_o_s_\'_:_ _[_\'_V_B_D_\'_,_ _\'_V_B_N_\'_]_}_,_ _\'_|_\'_,_ _{_\'_n_o_d_e_T_y_p_e_\'_:_ _\'_T_o_k_e_n_\'_,_ _\'_p_o_s_\'_:_ _[_\'_V_B_\'_,_ _\'_V_B_P_\'_]_}_,_ _\'_)_\'_]'
sS'states'
p9
(lp10
I12
aI13
aI2
aI3
aI4
aI1
aI9
aI11
aI7
aI6
aI5
aI10
aI8
aI14
aI0
asS'initialState'
p11
I0
sS'_arcMetadata'
p12
(dsS'_isSorted'
p13
I1
sS'transitions'
p14
(lp15
(I0
I1
S"{'text': 'be', 'nodeType': 'Token', 'pos': ['VB', 'VBP']}"
ta(I0
I2
S"{'nodeType': 'Token', 'pos': ['VB', 'VBP']}"
ta(I0
I3
S'{\'text\': [\'not\', "n\'t", \'neither\'], \'nodeType\': \'Token\'}'
ta(I0
I4
S"{'text': ',', 'nodeType': 'Token'}"
ta(I0
I0
S"{'text': ('^', ['a', 'an', 'the', 'as']), 'nodeType': ['Token', 'AdjectiveToken'], 'pos': ['RB', 'WDT', 'DT', 'JJ', 'PRP']}"
ta(I0
I5
S"{'text': 'have', 'nodeType': 'Token', 'pos': ['VB', 'VBP']}"
ta(I1
I1
S"{'text': ('^', ['a', 'an', 'the', 'as']), 'nodeType': ['Token', 'AdjectiveToken'], 'pos': ['RB', 'WDT', 'DT', 'JJ', 'PRP']}"
ta(I1
I6
S"{'text': 'being', 'nodeType': 'Token'}"
ta(I1
I2
S"{'nodeType': 'Token', 'pos': 'VBG'}"
ta(I1
I2
S"{'nodeType': 'Token', 'pos': ['VBD', 'VBN']}"
ta(I1
I7
S"{'text': 'going', 'nodeType': 'Token'}"
ta(I3
I1
S"{'text': 'be', 'nodeType': 'Token', 'pos': ['VB', 'VBP']}"
ta(I3
I2
S"{'nodeType': 'Token', 'pos': ['VB', 'VBP']}"
ta(I3
I3
S'{\'text\': [\'not\', "n\'t", \'neither\'], \'nodeType\': \'Token\'}'
ta(I3
I4
S"{'text': ',', 'nodeType': 'Token'}"
ta(I3
I8
S"{'text': ('^', ['a', 'an', 'the', 'as']), 'nodeType': ['Token', 'AdjectiveToken'], 'pos': ['RB', 'WDT', 'DT', 'JJ', 'PRP']}"
ta(I3
I5
S"{'text': 'have', 'nodeType': 'Token', 'pos': ['VB', 'VBP']}"
ta(I4
I9
S'ALL'
p16
ta(I5
I10
S"{'text': 'been', 'nodeType': 'Token'}"
ta(I5
I3
S"{'text': 'to', 'nodeType': 'Token'}"
ta(I5
I2
S"{'nodeType': 'Token', 'pos': ['VBD', 'VBN']}"
ta(I5
I11
S"{'text': ('^', ['a', 'an', 'the', 'as']), 'nodeType': ['Token', 'AdjectiveToken'], 'pos': ['RB', 'WDT', 'DT', 'JJ', 'PRP']}"
ta(I5
I7
S"{'text': 'had', 'nodeType': 'Token'}"
ta(I6
I6
S"{'text': ('^', ['a', 'an', 'the', 'as']), 'nodeType': ['Token', 'AdjectiveToken'], 'pos': ['RB', 'WDT', 'DT', 'JJ', 'PRP']}"
ta(I6
I2
S"{'nodeType': 'Token', 'pos': ['VBD', 'VBN']}"
ta(I7
I3
S"{'text': 'to', 'nodeType': 'Token'}"
ta(I8
I8
S"{'text': ('^', ['a', 'an', 'the', 'as']), 'nodeType': ['Token', 'AdjectiveToken'], 'pos': ['RB', 'WDT', 'DT', 'JJ', 'PRP']}"
ta(I8
I10
S"{'text': 'be', 'nodeType': 'Token', 'pos': ['VB', 'VBP']}"
ta(I8
I11
S"{'text': 'have', 'nodeType': 'Token', 'pos': ['VB', 'VBP']}"
ta(I8
I2
S"{'nodeType': 'Token', 'pos': ['VB', 'VBP']}"
ta(I9
I12
g16
ta(I10
I10
S"{'text': ('^', ['a', 'an', 'the', 'as']), 'nodeType': ['Token', 'AdjectiveToken'], 'pos': ['RB', 'WDT', 'DT', 'JJ', 'PRP']}"
ta(I10
I6
S"{'text': 'being', 'nodeType': 'Token'}"
ta(I10
I2
S"{'nodeType': 'Token', 'pos': 'VBG'}"
ta(I10
I2
S"{'nodeType': 'Token', 'pos': ['VBD', 'VBN']}"
ta(I11
I11
S"{'text': ('^', ['a', 'an', 'the', 'as']), 'nodeType': ['Token', 'AdjectiveToken'], 'pos': ['RB', 'WDT', 'DT', 'JJ', 'PRP']}"
ta(I11
I10
S"{'text': 'been', 'nodeType': 'Token'}"
ta(I11
I2
S"{'nodeType': 'Token', 'pos': ['VBD', 'VBN']}"
ta(I12
I13
S'ALL'
ta(I12
I3
S"{'text': ',', 'nodeType': 'Token'}"
ta(I13
I14
S'ALL'
ta(I13
I3
S"{'text': ',', 'nodeType': 'Token'}"
ta(I14
I3
S"{'text': ',', 'nodeType': 'Token'}"
tasS'_isDeterminized'
p17
I1
sS'_isMinimized'
p18
I1
sba.