(dp1
S'completion'
p2
(dp3
S'forward'
p4
((lp5
(lp6
(iFSA
FSA
p7
(dp8
S'fsaname'
p9
S'of_NPev'
p10
sS'finalStates'
p11
(lp12
I4
asS'alphabet'
p13
NsS'_isTrimmed'
p14
I1
sS'label'
p15
S"[_{_'_n_o_d_e_T_y_p_e_'_:_ _'_T_o_k_e_n_'_,_ _'_p_o_s_'_:_ _'_P_D_T_'_}_,_ _'_?_'_,_ _{_'_n_o_d_e_T_y_p_e_'_:_ _'_N_o_u_n_C_h_u_n_k_'_}_,_ _'_?_'_,_ _{_'_t_e_x_t_'_:_ _'_o_f_'_}_,_ _{_'_n_o_d_e_T_y_p_e_'_:_ _'_T_o_k_e_n_'_,_ _'_p_o_s_'_:_ _'_P_D_T_'_}_,_ _'_?_'_,_ _'_(_'_,_ _{_'_n_o_d_e_T_y_p_e_'_:_ _'_N_o_u_n_C_h_u_n_k_'_,_ _'_e_v_e_n_t_S_t_a_t_u_s_'_:_ _'_1_'_}_,_ _'_|_'_,_ _{_'_n_o_d_e_T_y_p_e_'_:_ _'_T_o_k_e_n_'_,_ _'_p_o_s_'_:_ _'_D_T_'_}_,_ _'_(_'_,_ _{_'_n_o_d_e_T_y_p_e_'_:_ _'_T_o_k_e_n_'_,_ _'_p_o_s_'_:_ _[_'_J_J_'_,_ _'_J_J_R_'_,_ _'_J_J_S_'_]_}_,_ _'_|_'_,_ _{_'_n_o_d_e_T_y_p_e_'_:_ _'_V_e_r_b_C_h_u_n_k_'_,_ _'_p_o_s_'_:_ _[_'_V_G_B_'_,_ _'_V_B_N_'_]_}_,_ _'_|_'_,_ _{_'_p_o_s_'_:_ _'_S_Y_M_'_}_,_ _'_)_'_,_ _'_*_'_,_ _{_'_n_o_d_e_T_y_p_e_'_:_ _'_T_o_k_e_n_'_,_ _'_p_o_s_'_:_ _'_C_D_'_}_,_ _'_*_'_,_ _{_'_n_o_d_e_T_y_p_e_'_:_ _'_N_o_u_n_C_h_u_n_k_'_}_,_ _'_)_'_]"
sS'states'
p16
(lp17
I7
aI6
aI1
aI0
aI3
aI2
aI5
aI4
asS'initialState'
p18
I0
sS'_arcMetadata'
p19
(dsS'_isSorted'
p20
I1
sS'transitions'
p21
(lp22
(I0
I1
S"{'nodeType': 'NounChunk'}"
ta(I0
I2
S"{'nodeType': 'Token', 'pos': 'PDT'}"
ta(I0
I3
S"{'text': 'of'}"
ta(I1
I3
S"{'text': 'of'}"
ta(I2
I1
S"{'nodeType': 'NounChunk'}"
ta(I2
I3
S"{'text': 'of'}"
ta(I3
I4
S"{'nodeType': 'NounChunk', 'eventStatus': '1'}"
ta(I3
I5
S"{'nodeType': 'Token', 'pos': 'PDT'}"
ta(I3
I6
S"{'nodeType': 'Token', 'pos': 'DT'}"
ta(I5
I4
S"{'nodeType': 'NounChunk', 'eventStatus': '1'}"
ta(I5
I6
S"{'nodeType': 'Token', 'pos': 'DT'}"
ta(I6
I4
S"{'nodeType': 'NounChunk'}"
ta(I6
I6
S"{'nodeType': 'Token', 'pos': ['JJ', 'JJR', 'JJS']}"
ta(I6
I6
S"{'nodeType': 'VerbChunk', 'pos': ['VGB', 'VBN']}"
ta(I6
I6
S"{'pos': 'SYM'}"
ta(I6
I7
S"{'nodeType': 'Token', 'pos': 'CD'}"
ta(I7
I4
S"{'nodeType': 'NounChunk'}"
ta(I7
I7
S"{'nodeType': 'Token', 'pos': 'CD'}"
tasS'_isDeterminized'
p23
I1
sS'_isMinimized'
p24
I1
sbaa(lp25
S'CULMINATES'
p26
atssS'beginnings'
p27
(dp28
g4
((lp29
(lp30
(iFSA
FSA
p31
(dp32
g9
S'NP_event1'
p33
sg11
(lp34
I2
asg13
Nsg14
I1
sg15
S'[_{_\'_n_o_d_e_T_y_p_e_\'_:_ _\'_T_o_k_e_n_\'_,_ _\'_p_o_s_\'_:_ _\'_P_D_T_\'_}_,_ _\'_?_\'_,_ _{_\'_t_e_x_t_\'_:_ _[_\'_"_\'_,_ _\'_`_`_\'_,_ _"_\'_\'_"_]_}_,_ _\'_?_\'_,_ _\'_(_\'_,_ _{_\'_n_o_d_e_T_y_p_e_\'_:_ _\'_T_o_k_e_n_\'_,_ _\'_p_o_s_\'_:_ _[_\'_J_J_\'_,_ _\'_J_J_R_\'_,_ _\'_J_J_S_\'_,_ _\'_D_T_\'_,_ _\'_P_D_T_\'_,_ _\'_P_O_S_\'_,_ _\'_C_D_\'_,_ _\'_S_Y_M_\'_]_}_,_ _\'_*_\'_,_ _{_\'_n_o_d_e_T_y_p_e_\'_:_ _\'_N_o_u_n_C_h_u_n_k_\'_}_,_ _{_\'_t_e_x_t_\'_:_ _\'_o_f_\'_}_,_ _\'_)_\'_,_ _\'_*_\'_,_ _{_\'_n_o_d_e_T_y_p_e_\'_:_ _\'_N_o_u_n_C_h_u_n_k_\'_,_ _\'_e_v_e_n_t_S_t_a_t_u_s_\'_:_ _\'_1_\'_}_]'
sg16
(lp35
I3
aI0
aI2
aI5
aI1
aI4
asg18
I0
sg19
(dsg20
I1
sg21
(lp36
(I0
I1
S"{'nodeType': 'NounChunk'}"
ta(I0
I2
S"{'nodeType': 'NounChunk', 'eventStatus': '1'}"
ta(I0
I3
S'{\'text\': [\'"\', \'``\', "\'\'"]}'
ta(I0
I4
S"{'nodeType': 'Token', 'pos': 'PDT'}"
ta(I0
I5
S"{'nodeType': 'Token', 'pos': ['JJ', 'JJR', 'JJS', 'DT', 'PDT', 'POS', 'CD', 'SYM']}"
ta(I1
I3
S"{'text': 'of'}"
ta(I3
I1
S"{'nodeType': 'NounChunk'}"
ta(I3
I2
S"{'nodeType': 'NounChunk', 'eventStatus': '1'}"
ta(I3
I5
S"{'nodeType': 'Token', 'pos': ['JJ', 'JJR', 'JJS', 'DT', 'PDT', 'POS', 'CD', 'SYM']}"
ta(I4
I1
S"{'nodeType': 'NounChunk'}"
ta(I4
I2
S"{'nodeType': 'NounChunk', 'eventStatus': '1'}"
ta(I4
I3
S'{\'text\': [\'"\', \'``\', "\'\'"]}'
ta(I4
I5
S"{'nodeType': 'Token', 'pos': ['JJ', 'JJR', 'JJS', 'DT', 'PDT', 'POS', 'CD', 'SYM']}"
ta(I5
I1
S"{'nodeType': 'NounChunk'}"
ta(I5
I5
S"{'nodeType': 'Token', 'pos': ['JJ', 'JJR', 'JJS', 'DT', 'PDT', 'POS', 'CD', 'SYM']}"
tasg23
I1
sg24
I1
sba(iFSA
FSA
p37
(dp38
g9
S'NP_event2'
p39
sg11
(lp40
I5
asg13
Nsg14
I1
sg15
S'[_{_\'_n_o_d_e_T_y_p_e_\'_:_ _\'_T_o_k_e_n_\'_,_ _\'_p_o_s_\'_:_ _\'_P_D_T_\'_}_,_ _\'_?_\'_,_ _{_\'_t_e_x_t_\'_:_ _[_\'_"_\'_,_ _\'_`_`_\'_,_ _"_\'_\'_"_]_}_,_ _\'_?_\'_,_ _{_\'_n_o_d_e_T_y_p_e_\'_:_ _\'_T_o_k_e_n_\'_,_ _\'_p_o_s_\'_:_ _\'_D_T_\'_}_,_ _\'_?_\'_,_ _{_\'_t_e_x_t_\'_:_ _[_\'_"_\'_,_ _\'_`_`_\'_,_ _"_\'_\'_"_]_}_,_ _\'_?_\'_,_ _\'_(_\'_,_ _{_\'_n_o_d_e_T_y_p_e_\'_:_ _\'_T_o_k_e_n_\'_,_ _\'_p_o_s_\'_:_ _[_\'_J_J_\'_,_ _\'_J_J_R_\'_,_ _\'_J_J_S_\'_]_}_,_ _\'_|_\'_,_ _{_\'_n_o_d_e_T_y_p_e_\'_:_ _\'_V_e_r_b_C_h_u_n_k_\'_,_ _\'_p_o_s_\'_:_ _[_\'_V_G_B_\'_,_ _\'_V_B_N_\'_]_}_,_ _\'_|_\'_,_ _{_\'_p_o_s_\'_:_ _\'_S_Y_M_\'_}_,_ _\'_)_\'_,_ _\'_*_\'_,_ _{_\'_t_e_x_t_\'_:_ _[_\'_"_\'_,_ _\'_`_`_\'_,_ _"_\'_\'_"_]_}_,_ _\'_?_\'_,_ _{_\'_n_o_d_e_T_y_p_e_\'_:_ _\'_T_o_k_e_n_\'_,_ _\'_p_o_s_\'_:_ _\'_C_D_\'_}_,_ _\'_*_\'_,_ _{_\'_t_e_x_t_\'_:_ _[_\'_"_\'_,_ _\'_`_`_\'_,_ _"_\'_\'_"_]_}_,_ _\'_?_\'_,_ _{_\'_n_o_d_e_T_y_p_e_\'_:_ _\'_N_o_u_n_C_h_u_n_k_\'_,_ _\'_e_v_e_n_t_S_t_a_t_u_s_\'_:_ _\'_1_\'_}_]'
sg16
(lp41
I2
aI7
aI1
aI0
aI3
aI5
aI4
aI6
asg18
I0
sg19
(dsg20
I1
sg21
(lp42
(I0
I1
S'{\'text\': [\'"\', \'``\', "\'\'"]}'
ta(I0
I2
S"{'nodeType': 'Token', 'pos': 'CD'}"
ta(I0
I3
S"{'nodeType': 'Token', 'pos': 'DT'}"
ta(I0
I4
S"{'nodeType': 'Token', 'pos': ['JJ', 'JJR', 'JJS']}"
ta(I0
I4
S"{'nodeType': 'VerbChunk', 'pos': ['VGB', 'VBN']}"
ta(I0
I4
S"{'pos': 'SYM'}"
ta(I0
I5
S"{'nodeType': 'NounChunk', 'eventStatus': '1'}"
ta(I0
I6
S"{'nodeType': 'Token', 'pos': 'PDT'}"
ta(I1
I4
S"{'nodeType': 'Token', 'pos': ['JJ', 'JJR', 'JJS']}"
ta(I1
I4
S"{'nodeType': 'VerbChunk', 'pos': ['VGB', 'VBN']}"
ta(I1
I4
S"{'pos': 'SYM'}"
ta(I1
I4
S'{\'text\': [\'"\', \'``\', "\'\'"]}'
ta(I1
I2
S"{'nodeType': 'Token', 'pos': 'CD'}"
ta(I1
I3
S"{'nodeType': 'Token', 'pos': 'DT'}"
ta(I1
I5
S"{'nodeType': 'NounChunk', 'eventStatus': '1'}"
ta(I2
I5
S"{'nodeType': 'NounChunk', 'eventStatus': '1'}"
ta(I2
I7
S'{\'text\': [\'"\', \'``\', "\'\'"]}'
ta(I2
I2
S"{'nodeType': 'Token', 'pos': 'CD'}"
ta(I3
I4
S"{'nodeType': 'Token', 'pos': ['JJ', 'JJR', 'JJS']}"
ta(I3
I4
S"{'nodeType': 'VerbChunk', 'pos': ['VGB', 'VBN']}"
ta(I3
I4
S"{'pos': 'SYM'}"
ta(I3
I4
S'{\'text\': [\'"\', \'``\', "\'\'"]}'
ta(I3
I2
S"{'nodeType': 'Token', 'pos': 'CD'}"
ta(I3
I5
S"{'nodeType': 'NounChunk', 'eventStatus': '1'}"
ta(I4
I2
S"{'nodeType': 'Token', 'pos': 'CD'}"
ta(I4
I2
S'{\'text\': [\'"\', \'``\', "\'\'"]}'
ta(I4
I4
S"{'nodeType': 'Token', 'pos': ['JJ', 'JJR', 'JJS']}"
ta(I4
I4
S"{'nodeType': 'VerbChunk', 'pos': ['VGB', 'VBN']}"
ta(I4
I4
S"{'pos': 'SYM'}"
ta(I4
I5
S"{'nodeType': 'NounChunk', 'eventStatus': '1'}"
ta(I6
I1
S'{\'text\': [\'"\', \'``\', "\'\'"]}'
ta(I6
I2
S"{'nodeType': 'Token', 'pos': 'CD'}"
ta(I6
I3
S"{'nodeType': 'Token', 'pos': 'DT'}"
ta(I6
I4
S"{'nodeType': 'Token', 'pos': ['JJ', 'JJR', 'JJS']}"
ta(I6
I4
S"{'nodeType': 'VerbChunk', 'pos': ['VGB', 'VBN']}"
ta(I6
I4
S"{'pos': 'SYM'}"
ta(I6
I5
S"{'nodeType': 'NounChunk', 'eventStatus': '1'}"
ta(I7
I5
S"{'nodeType': 'NounChunk', 'eventStatus': '1'}"
tasg23
I1
sg24
I1
sbag7
aa(lp43
S'INITIATES'
p44
atssS'opening'
p45
(dp46
g4
((lp47
(lp48
g31
ag37
ag7
aa(lp49
g44
atssS'close'
p50
(dp51
g4
((lp52
(lp53
g7
aa(lp54
S'TERMINATES'
p55
atssS'beginning'
p56
(dp57
g4
((lp58
(lp59
g31
ag37
ag7
aa(lp60
g44
atssS'starting'
p61
(dp62
g4
((lp63
(lp64
g31
ag37
ag7
aa(lp65
g44
atssS'ending'
p66
(dp67
g4
((lp68
(lp69
g31
ag37
ag7
aa(lp70
g55
atss.