(dp1
S'vital'
p2
(dp3
S'forward'
p4
((lp5
(lp6
(iFSA
FSA
p7
(dp8
S'fsaname'
p9
S'thatClause_that'
p10
sS'finalStates'
p11
(lp12
I7
asS'alphabet'
p13
NsS'_isTrimmed'
p14
I1
sS'label'
p15
S'[_\'_(_\'_,_ _{_\'_t_e_x_t_\'_:_ _[_\'_t_h_a_t_\'_,_ _\'_i_f_\'_,_ _\'_w_h_e_t_h_e_r_\'_]_,_ _\'_n_o_d_e_T_y_p_e_\'_:_ _\'_T_o_k_e_n_\'_,_ _\'_p_o_s_\'_:_ _\'_I_N_\'_}_,_ _\'_|_\'_,_ _\'_(_\'_,_ _{_\'_n_o_d_e_T_y_p_e_\'_:_ _\'_N_o_u_n_C_h_u_n_k_\'_}_,_ _\'_|_\'_,_ _{_\'_n_o_d_e_T_y_p_e_\'_:_ _\'_T_o_k_e_n_\'_,_ _\'_p_o_s_\'_:_ _\'_I_N_\'_}_,_ _\'_|_\'_,_ _{_\'_n_o_d_e_T_y_p_e_\'_:_ _\'_T_o_k_e_n_\'_,_ _\'_p_o_s_\'_:_ _[_\'_J_J_\'_,_ _\'_J_J_R_\'_,_ _\'_J_J_S_\'_,_ _\'_D_T_\'_,_ _\'_P_D_T_\'_,_ _\'_P_O_S_\'_,_ _\'_C_D_\'_,_ _\'_S_Y_M_\'_]_}_,_ _\'_|_\'_,_ _{_\'_t_e_x_t_\'_:_ _[_\'_"_\'_,_ _\'_`_`_\'_,_ _"_\'_\'_"_]_}_,_ _\'_)_\'_,_ _\'_+_\'_,_ _{_\'_t_e_x_t_\'_:_ _[_\'_t_h_a_t_\'_,_ _\'_i_f_\'_,_ _\'_w_h_e_t_h_e_r_\'_]_,_ _\'_n_o_d_e_T_y_p_e_\'_:_ _\'_T_o_k_e_n_\'_,_ _\'_p_o_s_\'_:_ _\'_I_N_\'_}_,_ _\'_|_\'_,_ _{_\'_t_e_x_t_\'_:_ _(_\'_^_\'_,_ _[_\'_,_\'_]_)_}_,_ _\'_?_\'_,_ _{_\'_t_e_x_t_\'_:_ _(_\'_^_\'_,_ _[_\'_;_\'_,_ _\'_._\'_,_ _\'_!_\'_,_ _\'_?_\'_,_ _\'_._._._\'_,_ _\'_"_\'_,_ _\'_`_`_\'_]_)_,_ _\'_p_o_s_\'_:_ _(_\'_^_\'_,_ _[_\'_W_P_\'_,_ _\'_W_D_T_\'_,_ _\'_W_R_B_\'_,_ _\'_"_\'_,_ _"_\'_\'_"_,_ _\'_`_`_\'_]_)_}_,_ _\'_?_\'_,_ _{_\'_t_e_x_t_\'_:_ _(_\'_^_\'_,_ _[_\'_;_\'_,_ _\'_._\'_,_ _\'_!_\'_,_ _\'_?_\'_,_ _\'_._._._\'_,_ _\'_"_\'_,_ _\'_`_`_\'_]_)_,_ _\'_p_o_s_\'_:_ _(_\'_^_\'_,_ _[_\'_W_P_\'_,_ _\'_W_D_T_\'_,_ _\'_W_R_B_\'_,_ _\'_"_\'_,_ _"_\'_\'_"_,_ _\'_`_`_\'_]_)_}_,_ _\'_?_\'_,_ _{_\'_t_e_x_t_\'_:_ _[_\'_t_h_a_t_\'_,_ _\'_i_f_\'_,_ _\'_w_h_e_t_h_e_r_\'_]_,_ _\'_n_o_d_e_T_y_p_e_\'_:_ _\'_T_o_k_e_n_\'_,_ _\'_p_o_s_\'_:_ _\'_I_N_\'_}_,_ _\'_|_\'_,_ _{_\'_t_e_x_t_\'_:_ _\'_,_\'_}_,_ _{_\'_t_e_x_t_\'_:_ _[_\'_t_h_a_t_\'_,_ _\'_i_f_\'_,_ _\'_w_h_e_t_h_e_r_\'_]_,_ _\'_n_o_d_e_T_y_p_e_\'_:_ _\'_T_o_k_e_n_\'_,_ _\'_p_o_s_\'_:_ _\'_I_N_\'_}_,_ _\'_)_\'_,_ _{_\'_t_e_x_t_\'_:_ _(_\'_^_\'_,_ _[_\'_;_\'_,_ _\'_._\'_,_ _\'_!_\'_,_ _\'_?_\'_,_ _\'_._._._\'_,_ _\'_"_\'_,_ _\'_`_`_\'_]_)_,_ _\'_p_o_s_\'_:_ _(_\'_^_\'_,_ _[_\'_W_P_\'_,_ _\'_W_D_T_\'_,_ _\'_W_R_B_\'_,_ _\'_"_\'_,_ _"_\'_\'_"_,_ _\'_`_`_\'_]_)_}_,_ _\'_?_\'_,_ _\'_(_\'_,_ _\'_(_\'_,_ _{_\'_n_o_d_e_T_y_p_e_\'_:_ _\'_N_o_u_n_C_h_u_n_k_\'_}_,_ _\'_|_\'_,_ _{_\'_n_o_d_e_T_y_p_e_\'_:_ _\'_T_o_k_e_n_\'_,_ _\'_p_o_s_\'_:_ _\'_I_N_\'_}_,_ _\'_|_\'_,_ _{_\'_n_o_d_e_T_y_p_e_\'_:_ _\'_T_o_k_e_n_\'_,_ _\'_p_o_s_\'_:_ _[_\'_J_J_\'_,_ _\'_J_J_R_\'_,_ _\'_J_J_S_\'_,_ _\'_D_T_\'_,_ _\'_P_D_T_\'_,_ _\'_P_O_S_\'_,_ _\'_C_D_\'_,_ _\'_S_Y_M_\'_]_}_,_ _\'_)_\'_,_ _\'_+_\'_,_ _\'_(_\'_,_ _{_\'_t_e_n_s_e_\'_:_ _[_\'_P_A_S_T_\'_,_ _\'_P_R_E_S_E_N_T_\'_,_ _\'_F_U_T_U_R_E_\'_]_,_ _\'_n_o_d_e_T_y_p_e_\'_:_ _[_\'_C_h_u_n_k_\'_,_ _\'_N_o_u_n_C_h_u_n_k_\'_,_ _\'_V_e_r_b_C_h_u_n_k_\'_,_ _\'_A_d_j_e_c_t_i_v_e_T_o_k_e_n_\'_]_}_,_ _\'_|_\'_,_ _{_\'_n_o_d_e_T_y_p_e_\'_:_ _[_\'_C_h_u_n_k_\'_,_ _\'_N_o_u_n_C_h_u_n_k_\'_,_ _\'_V_e_r_b_C_h_u_n_k_\'_,_ _\'_A_d_j_e_c_t_i_v_e_T_o_k_e_n_\'_]_,_ _\'_m_o_d_a_l_i_t_y_\'_:_ _[_\'_m_a_y_\'_,_ _\'_c_a_n_\'_,_ _\'_m_u_s_t_\'_,_ _\'_m_i_g_h_t_\'_,_ _\'_c_o_u_l_d_\'_,_ _\'_s_h_o_u_l_d_\'_,_ _\'_w_o_u_l_d_\'_,_ _\'_o_u_g_h_t_\'_,_ _\'_h_a_v_e_ _t_o_\'_]_}_,_ _\'_)_\'_,_ _\'_|_\'_,_ _{_\'_t_e_x_t_\'_:_ _(_\'_^_\'_,_ _[_\'_;_\'_,_ _\'_._\'_,_ _\'_!_\'_,_ _\'_?_\'_,_ _\'_._._._\'_,_ _\'_"_\'_,_ _\'_`_`_\'_]_)_,_ _\'_p_o_s_\'_:_ _(_\'_^_\'_,_ _[_\'_W_P_\'_,_ _\'_W_D_T_\'_,_ _\'_W_R_B_\'_,_ _\'_"_\'_,_ _"_\'_\'_"_,_ _\'_`_`_\'_]_)_}_,_ _\'_?_\'_,_ _{_\'_t_e_x_t_\'_:_ _(_\'_^_\'_,_ _[_\'_;_\'_,_ _\'_._\'_,_ _\'_!_\'_,_ _\'_?_\'_,_ _\'_._._._\'_,_ _\'_"_\'_,_ _\'_`_`_\'_]_)_,_ _\'_p_o_s_\'_:_ _(_\'_^_\'_,_ _[_\'_W_P_\'_,_ _\'_W_D_T_\'_,_ _\'_W_R_B_\'_,_ _\'_"_\'_,_ _"_\'_\'_"_,_ _\'_`_`_\'_]_)_}_,_ _\'_?_\'_,_ _{_\'_t_e_x_t_\'_:_ _(_\'_^_\'_,_ _[_\'_;_\'_,_ _\'_._\'_,_ _\'_!_\'_,_ _\'_?_\'_,_ _\'_._._._\'_,_ _\'_"_\'_,_ _\'_`_`_\'_]_)_,_ _\'_p_o_s_\'_:_ _(_\'_^_\'_,_ _[_\'_W_P_\'_,_ _\'_W_D_T_\'_,_ _\'_W_R_B_\'_,_ _\'_"_\'_,_ _"_\'_\'_"_,_ _\'_`_`_\'_]_)_}_,_ _\'_?_\'_,_ _{_\'_t_e_x_t_\'_:_ _(_\'_^_\'_,_ _[_\'_;_\'_,_ _\'_._\'_,_ _\'_!_\'_,_ _\'_?_\'_,_ _\'_._._._\'_,_ _\'_"_\'_,_ _\'_`_`_\'_]_)_,_ _\'_p_o_s_\'_:_ _(_\'_^_\'_,_ _[_\'_W_P_\'_,_ _\'_W_D_T_\'_,_ _\'_W_R_B_\'_,_ _\'_"_\'_,_ _"_\'_\'_"_,_ _\'_`_`_\'_]_)_}_,_ _\'_?_\'_,_ _{_\'_t_e_x_t_\'_:_ _(_\'_^_\'_,_ _[_\'_;_\'_,_ _\'_._\'_,_ _\'_!_\'_,_ _\'_?_\'_,_ _\'_._._._\'_,_ _\'_"_\'_,_ _\'_`_`_\'_]_)_,_ _\'_p_o_s_\'_:_ _(_\'_^_\'_,_ _[_\'_W_P_\'_,_ _\'_W_D_T_\'_,_ _\'_W_R_B_\'_,_ _\'_"_\'_,_ _"_\'_\'_"_,_ _\'_`_`_\'_]_)_}_,_ _\'_?_\'_,_ _\'_(_\'_,_ _{_\'_t_e_n_s_e_\'_:_ _[_\'_P_A_S_T_\'_,_ _\'_P_R_E_S_E_N_T_\'_,_ _\'_F_U_T_U_R_E_\'_]_,_ _\'_n_o_d_e_T_y_p_e_\'_:_ _[_\'_C_h_u_n_k_\'_,_ _\'_N_o_u_n_C_h_u_n_k_\'_,_ _\'_V_e_r_b_C_h_u_n_k_\'_,_ _\'_A_d_j_e_c_t_i_v_e_T_o_k_e_n_\'_]_}_,_ _\'_|_\'_,_ _{_\'_n_o_d_e_T_y_p_e_\'_:_ _[_\'_C_h_u_n_k_\'_,_ _\'_N_o_u_n_C_h_u_n_k_\'_,_ _\'_V_e_r_b_C_h_u_n_k_\'_,_ _\'_A_d_j_e_c_t_i_v_e_T_o_k_e_n_\'_]_,_ _\'_m_o_d_a_l_i_t_y_\'_:_ _[_\'_m_a_y_\'_,_ _\'_c_a_n_\'_,_ _\'_m_u_s_t_\'_,_ _\'_m_i_g_h_t_\'_,_ _\'_c_o_u_l_d_\'_,_ _\'_s_h_o_u_l_d_\'_,_ _\'_w_o_u_l_d_\'_,_ _\'_o_u_g_h_t_\'_,_ _\'_h_a_v_e_ _t_o_\'_]_}_,_ _\'_)_\'_,_ _\'_|_\'_,_ _{_\'_t_e_x_t_\'_:_ _[_\'_i_s_\'_,_ _\'_w_a_s_\'_,_ _\'_w_e_r_e_\'_,_ _\'_a_m_\'_,_ _\'_b_e_\'_,_ _"_\'_s_"_,_ _\'_a_r_e_\'_,_ _"_\'_r_e_"_,_ _"_\'_m_"_,_ _\'_b_e_e_n_\'_,_ _\'_b_e_i_n_g_\'_]_,_ _\'_n_o_d_e_T_y_p_e_\'_:_ _\'_V_e_r_b_C_h_u_n_k_\'_}_,_ _{_\'_n_o_d_e_T_y_p_e_\'_:_ _\'_T_o_k_e_n_\'_,_ _\'_p_o_s_\'_:_ _\'_I_N_\'_}_,_ _\'_?_\'_,_ _{_\'_n_o_d_e_T_y_p_e_\'_:_ _\'_N_o_u_n_C_h_u_n_k_\'_,_ _\'_e_v_e_n_t_S_t_a_t_u_s_\'_:_ _\'_1_\'_}_,_ _\'_)_\'_]'
sS'states'
p16
(lp17
I6
aI14
aI15
aI4
aI0
aI2
aI1
aI11
aI3
aI8
aI12
aI5
aI13
aI9
aI10
aI7
asS'initialState'
p18
I0
sS'_arcMetadata'
p19
(dsS'_isSorted'
p20
I1
sS'transitions'
p21
(lp22
(I0
I1
S"{'nodeType': 'NounChunk'}"
ta(I0
I1
S"{'nodeType': 'Token', 'pos': 'IN'}"
ta(I0
I1
S"{'nodeType': 'Token', 'pos': ['JJ', 'JJR', 'JJS', 'DT', 'PDT', 'POS', 'CD', 'SYM']}"
ta(I0
I1
S'{\'text\': [\'"\', \'``\', "\'\'"]}'
ta(I0
I2
S"{'text': ('^', [','])}"
ta(I0
I3
S'{\'text\': (\'^\', [\';\', \'.\', \'!\', \'?\', \'...\', \'"\', \'``\']), \'pos\': (\'^\', [\'WP\', \'WDT\', \'WRB\', \'"\', "\'\'", \'``\'])}'
ta(I0
I4
S"{'text': ','}"
ta(I0
I5
S"{'text': ['that', 'if', 'whether'], 'nodeType': 'Token', 'pos': 'IN'}"
ta(I1
I1
S"{'nodeType': 'NounChunk'}"
ta(I1
I1
S"{'nodeType': 'Token', 'pos': 'IN'}"
ta(I1
I1
S"{'nodeType': 'Token', 'pos': ['JJ', 'JJR', 'JJS', 'DT', 'PDT', 'POS', 'CD', 'SYM']}"
ta(I1
I1
S'{\'text\': [\'"\', \'``\', "\'\'"]}'
ta(I1
I5
S"{'text': ['that', 'if', 'whether'], 'nodeType': 'Token', 'pos': 'IN'}"
ta(I2
I5
S"{'text': ['that', 'if', 'whether'], 'nodeType': 'Token', 'pos': 'IN'}"
ta(I2
I3
S'{\'text\': (\'^\', [\';\', \'.\', \'!\', \'?\', \'...\', \'"\', \'``\']), \'pos\': (\'^\', [\'WP\', \'WDT\', \'WRB\', \'"\', "\'\'", \'``\'])}'
ta(I3
I5
S"{'text': ['that', 'if', 'whether'], 'nodeType': 'Token', 'pos': 'IN'}"
ta(I3
I4
S'{\'text\': (\'^\', [\';\', \'.\', \'!\', \'?\', \'...\', \'"\', \'``\']), \'pos\': (\'^\', [\'WP\', \'WDT\', \'WRB\', \'"\', "\'\'", \'``\'])}'
ta(I4
I5
S"{'text': ['that', 'if', 'whether'], 'nodeType': 'Token', 'pos': 'IN'}"
ta(I5
I6
S"{'nodeType': 'NounChunk'}"
ta(I5
I6
S"{'nodeType': 'Token', 'pos': 'IN'}"
ta(I5
I6
S"{'nodeType': 'Token', 'pos': ['JJ', 'JJR', 'JJS', 'DT', 'PDT', 'POS', 'CD', 'SYM']}"
ta(I5
I7
S"{'nodeType': ['Chunk', 'NounChunk', 'VerbChunk', 'AdjectiveToken'], 'modality': ['may', 'can', 'must', 'might', 'could', 'should', 'would', 'ought', 'have to']}"
ta(I5
I7
S"{'tense': ['PAST', 'PRESENT', 'FUTURE'], 'nodeType': ['Chunk', 'NounChunk', 'VerbChunk', 'AdjectiveToken']}"
ta(I5
I8
S'{\'text\': [\'is\', \'was\', \'were\', \'am\', \'be\', "\'s", \'are\', "\'re", "\'m", \'been\', \'being\'], \'nodeType\': \'VerbChunk\'}'
ta(I5
I9
S'{\'text\': (\'^\', [\';\', \'.\', \'!\', \'?\', \'...\', \'"\', \'``\']), \'pos\': (\'^\', [\'WP\', \'WDT\', \'WRB\', \'"\', "\'\'", \'``\'])}'
ta(I6
I6
S"{'nodeType': 'NounChunk'}"
ta(I6
I6
S"{'nodeType': 'Token', 'pos': 'IN'}"
ta(I6
I6
S"{'nodeType': 'Token', 'pos': ['JJ', 'JJR', 'JJS', 'DT', 'PDT', 'POS', 'CD', 'SYM']}"
ta(I6
I7
S"{'nodeType': ['Chunk', 'NounChunk', 'VerbChunk', 'AdjectiveToken'], 'modality': ['may', 'can', 'must', 'might', 'could', 'should', 'would', 'ought', 'have to']}"
ta(I6
I7
S"{'tense': ['PAST', 'PRESENT', 'FUTURE'], 'nodeType': ['Chunk', 'NounChunk', 'VerbChunk', 'AdjectiveToken']}"
ta(I8
I10
S"{'nodeType': 'Token', 'pos': 'IN'}"
ta(I8
I7
S"{'nodeType': 'NounChunk', 'eventStatus': '1'}"
ta(I9
I6
S"{'nodeType': 'NounChunk'}"
ta(I9
I6
S"{'nodeType': 'Token', 'pos': 'IN'}"
ta(I9
I6
S"{'nodeType': 'Token', 'pos': ['JJ', 'JJR', 'JJS', 'DT', 'PDT', 'POS', 'CD', 'SYM']}"
ta(I9
I7
S"{'nodeType': ['Chunk', 'NounChunk', 'VerbChunk', 'AdjectiveToken'], 'modality': ['may', 'can', 'must', 'might', 'could', 'should', 'would', 'ought', 'have to']}"
ta(I9
I7
S"{'tense': ['PAST', 'PRESENT', 'FUTURE'], 'nodeType': ['Chunk', 'NounChunk', 'VerbChunk', 'AdjectiveToken']}"
ta(I9
I8
S'{\'text\': [\'is\', \'was\', \'were\', \'am\', \'be\', "\'s", \'are\', "\'re", "\'m", \'been\', \'being\'], \'nodeType\': \'VerbChunk\'}'
ta(I9
I11
S'{\'text\': (\'^\', [\';\', \'.\', \'!\', \'?\', \'...\', \'"\', \'``\']), \'pos\': (\'^\', [\'WP\', \'WDT\', \'WRB\', \'"\', "\'\'", \'``\'])}'
ta(I10
I7
S"{'nodeType': 'NounChunk', 'eventStatus': '1'}"
ta(I11
I7
S"{'nodeType': ['Chunk', 'NounChunk', 'VerbChunk', 'AdjectiveToken'], 'modality': ['may', 'can', 'must', 'might', 'could', 'should', 'would', 'ought', 'have to']}"
ta(I11
I7
S"{'tense': ['PAST', 'PRESENT', 'FUTURE'], 'nodeType': ['Chunk', 'NounChunk', 'VerbChunk', 'AdjectiveToken']}"
ta(I11
I12
S'{\'text\': (\'^\', [\';\', \'.\', \'!\', \'?\', \'...\', \'"\', \'``\']), \'pos\': (\'^\', [\'WP\', \'WDT\', \'WRB\', \'"\', "\'\'", \'``\'])}'
ta(I12
I7
S"{'nodeType': ['Chunk', 'NounChunk', 'VerbChunk', 'AdjectiveToken'], 'modality': ['may', 'can', 'must', 'might', 'could', 'should', 'would', 'ought', 'have to']}"
ta(I12
I7
S"{'tense': ['PAST', 'PRESENT', 'FUTURE'], 'nodeType': ['Chunk', 'NounChunk', 'VerbChunk', 'AdjectiveToken']}"
ta(I12
I13
S'{\'text\': (\'^\', [\';\', \'.\', \'!\', \'?\', \'...\', \'"\', \'``\']), \'pos\': (\'^\', [\'WP\', \'WDT\', \'WRB\', \'"\', "\'\'", \'``\'])}'
ta(I13
I7
S"{'nodeType': ['Chunk', 'NounChunk', 'VerbChunk', 'AdjectiveToken'], 'modality': ['may', 'can', 'must', 'might', 'could', 'should', 'would', 'ought', 'have to']}"
ta(I13
I7
S"{'tense': ['PAST', 'PRESENT', 'FUTURE'], 'nodeType': ['Chunk', 'NounChunk', 'VerbChunk', 'AdjectiveToken']}"
ta(I13
I14
S'{\'text\': (\'^\', [\';\', \'.\', \'!\', \'?\', \'...\', \'"\', \'``\']), \'pos\': (\'^\', [\'WP\', \'WDT\', \'WRB\', \'"\', "\'\'", \'``\'])}'
ta(I14
I7
S"{'nodeType': ['Chunk', 'NounChunk', 'VerbChunk', 'AdjectiveToken'], 'modality': ['may', 'can', 'must', 'might', 'could', 'should', 'would', 'ought', 'have to']}"
ta(I14
I7
S"{'tense': ['PAST', 'PRESENT', 'FUTURE'], 'nodeType': ['Chunk', 'NounChunk', 'VerbChunk', 'AdjectiveToken']}"
ta(I14
I15
S'{\'text\': (\'^\', [\';\', \'.\', \'!\', \'?\', \'...\', \'"\', \'``\']), \'pos\': (\'^\', [\'WP\', \'WDT\', \'WRB\', \'"\', "\'\'", \'``\'])}'
ta(I15
I7
S"{'nodeType': ['Chunk', 'NounChunk', 'VerbChunk', 'AdjectiveToken'], 'modality': ['may', 'can', 'must', 'might', 'could', 'should', 'would', 'ought', 'have to']}"
ta(I15
I7
S"{'tense': ['PAST', 'PRESENT', 'FUTURE'], 'nodeType': ['Chunk', 'NounChunk', 'VerbChunk', 'AdjectiveToken']}"
tasS'_isDeterminized'
p23
I1
sS'_isMinimized'
p24
I1
sbaa(lp25
S'MODAL'
p26
atsS'backwards'
p27
((lp28
(lp29
(iFSA
FSA
p30
(dp31
g9
S'NP_eventAsSubj3'
p32
sg11
(lp33
I3
asg13
Nsg14
I1
sg15
S"[_'_(_'_,_ _{_'_n_o_d_e_T_y_p_e_'_:_ _'_A_d_j_e_c_t_i_v_e_T_o_k_e_n_'_,_ _'_e_v_e_n_t_S_t_a_t_u_s_'_:_ _'_1_'_}_,_ _'_|_'_,_ _{_'_n_o_d_e_T_y_p_e_'_:_ _'_V_e_r_b_C_h_u_n_k_'_,_ _'_e_v_e_n_t_S_t_a_t_u_s_'_:_ _'_1_'_,_ _'_p_o_s_'_:_ _[_'_V_B_G_'_,_ _'_V_B_N_'_]_}_,_ _'_)_'_,_ _{_'_n_o_d_e_T_y_p_e_'_:_ _'_V_e_r_b_C_h_u_n_k_'_,_ _'_e_v_e_n_t_S_t_a_t_u_s_'_:_ _(_'_^_'_,_ _'_1_'_)_}_,_ _{_'_n_o_d_e_T_y_p_e_'_:_ _'_T_o_k_e_n_'_,_ _'_p_o_s_'_:_ _[_'_J_J_'_,_ _'_R_B_'_]_}_,_ _'_?_'_,_ _{_'_n_o_d_e_T_y_p_e_'_:_ _'_N_o_u_n_C_h_u_n_k_'_,_ _'_e_v_e_n_t_S_t_a_t_u_s_'_:_ _'_1_'_}_]"
sg16
(lp34
I0
aI2
aI1
aI4
aI3
asg18
I0
sg19
(dsg20
I1
sg21
(lp35
(I0
I1
S"{'nodeType': 'AdjectiveToken', 'eventStatus': '1'}"
ta(I0
I1
S"{'nodeType': 'VerbChunk', 'eventStatus': '1', 'pos': ['VBG', 'VBN']}"
ta(I1
I2
S"{'nodeType': 'VerbChunk', 'eventStatus': ('^', '1')}"
ta(I2
I3
S"{'nodeType': 'NounChunk', 'eventStatus': '1'}"
ta(I2
I4
S"{'nodeType': 'Token', 'pos': ['JJ', 'RB']}"
ta(I4
I3
S"{'nodeType': 'NounChunk', 'eventStatus': '1'}"
tasg23
I1
sg24
I1
sbaa(lp36
g26
atssS'crazy'
p37
(dp38
g4
((lp39
(lp40
g7
aa(lp41
(iFSA
FSA
p42
(dp43
g9
S'toClause1'
p44
sg11
(lp45
I1
asg13
Nsg14
I1
sg15
S"[_{_'_p_o_s_'_:_ _[_'_R_B_'_,_ _'_R_B_R_'_,_ _'_R_B_S_'_,_ _'_R_P_'_,_ _'_J_J_R_'_]_}_,_ _'_?_'_,_ _'_(_'_,_ _{_'_t_e_n_s_e_'_:_ _'_I_N_F_I_N_I_T_I_V_E_'_,_ _'_n_o_d_e_T_y_p_e_'_:_ _'_V_e_r_b_C_h_u_n_k_'_}_,_ _'_|_'_,_ _{_'_t_e_x_t_'_:_ _'_t_o_'_,_ _'_p_o_s_'_:_ _'_T_O_'_}_,_ _{_'_p_o_s_'_:_ _'_U_H_'_}_,_ _'_?_'_,_ _'_(_'_,_ _{_'_n_o_d_e_T_y_p_e_'_:_ _'_V_e_r_b_C_h_u_n_k_'_,_ _'_e_v_e_n_t_S_t_a_t_u_s_'_:_ _'_1_'_}_,_ _'_|_'_,_ _{_'_n_o_d_e_T_y_p_e_'_:_ _'_N_o_u_n_C_h_u_n_k_'_,_ _'_e_v_e_n_t_S_t_a_t_u_s_'_:_ _'_1_'_}_,_ _'_)_'_,_ _'_)_'_]"
sg16
(lp46
I0
aI2
aI4
aI3
aI1
asg18
I0
sg19
(dsg20
I1
sg21
(lp47
(I0
I1
S"{'tense': 'INFINITIVE', 'nodeType': 'VerbChunk'}"
ta(I0
I2
S"{'pos': ['RB', 'RBR', 'RBS', 'RP', 'JJR']}"
ta(I0
I3
S"{'text': 'to', 'pos': 'TO'}"
ta(I2
I1
S"{'tense': 'INFINITIVE', 'nodeType': 'VerbChunk'}"
ta(I2
I3
S"{'text': 'to', 'pos': 'TO'}"
ta(I3
I1
S"{'nodeType': 'NounChunk', 'eventStatus': '1'}"
ta(I3
I1
S"{'nodeType': 'VerbChunk', 'eventStatus': '1'}"
ta(I3
I4
S"{'pos': 'UH'}"
ta(I4
I1
S"{'nodeType': 'NounChunk', 'eventStatus': '1'}"
ta(I4
I1
S"{'nodeType': 'VerbChunk', 'eventStatus': '1'}"
tasg23
I1
sg24
I1
sba(iFSA
FSA
p48
(dp49
g9
S'toClause3'
p50
sg11
(lp51
I6
asg13
Nsg14
I1
sg15
S"[_'_(_'_,_ _{_'_n_o_d_e_T_y_p_e_'_:_ _'_T_o_k_e_n_'_,_ _'_p_o_s_'_:_ _'_P_D_T_'_}_,_ _'_|_'_,_ _{_'_n_o_d_e_T_y_p_e_'_:_ _'_T_o_k_e_n_'_,_ _'_p_o_s_'_:_ _'_D_T_'_}_,_ _{_'_n_o_d_e_T_y_p_e_'_:_ _'_T_o_k_e_n_'_,_ _'_p_o_s_'_:_ _'_I_N_'_}_,_ _'_)_'_,_ _'_?_'_,_ _'_(_'_,_ _{_'_n_o_d_e_T_y_p_e_'_:_ _'_N_o_u_n_C_h_u_n_k_'_}_,_ _'_(_'_,_ _{_'_n_o_d_e_T_y_p_e_'_:_ _'_T_o_k_e_n_'_,_ _'_p_o_s_'_:_ _'_I_N_'_}_,_ _'_|_'_,_ _{_'_t_e_x_t_'_:_ _[_'_a_n_d_'_,_ _'_o_r_'_]_,_ _'_n_o_d_e_T_y_p_e_'_:_ _'_T_o_k_e_n_'_,_ _'_p_o_s_'_:_ _'_C_C_'_}_,_ _'_)_'_,_ _{_'_n_o_d_e_T_y_p_e_'_:_ _'_N_o_u_n_C_h_u_n_k_'_}_,_ _'_(_'_,_ _{_'_n_o_d_e_T_y_p_e_'_:_ _'_T_o_k_e_n_'_,_ _'_p_o_s_'_:_ _'_I_N_'_}_,_ _{_'_n_o_d_e_T_y_p_e_'_:_ _'_N_o_u_n_C_h_u_n_k_'_}_,_ _'_)_'_,_ _'_?_'_,_ _'_|_'_,_ _'_(_'_,_ _{_'_n_o_d_e_T_y_p_e_'_:_ _'_T_o_k_e_n_'_,_ _'_p_o_s_'_:_ _[_'_P_P_'_,_ _'_P_P_$_'_,_ _'_P_R_P_$_'_,_ _'_P_R_P_'_]_}_,_ _'_|_'_,_ _{_'_n_o_d_e_T_y_p_e_'_:_ _'_N_o_u_n_C_h_u_n_k_'_}_,_ _'_)_'_,_ _'_|_'_,_ _{_'_t_e_x_t_'_:_ _[_'_t_h_i_s_'_,_ _'_t_h_a_t_'_,_ _'_t_h_e_s_e_'_,_ _'_t_h_o_s_e_'_]_,_ _'_n_o_d_e_T_y_p_e_'_:_ _'_T_o_k_e_n_'_}_,_ _'_|_'_,_ _{_'_n_o_d_e_T_y_p_e_'_:_ _'_T_o_k_e_n_'_,_ _'_p_o_s_'_:_ _'_D_T_'_}_,_ _'_(_'_,_ _{_'_n_o_d_e_T_y_p_e_'_:_ _'_T_o_k_e_n_'_,_ _'_p_o_s_'_:_ _[_'_J_J_'_,_ _'_J_J_R_'_,_ _'_J_J_S_'_]_}_,_ _'_|_'_,_ _{_'_p_o_s_'_:_ _'_S_Y_M_'_}_,_ _'_)_'_,_ _'_*_'_,_ _{_'_n_o_d_e_T_y_p_e_'_:_ _'_T_o_k_e_n_'_,_ _'_p_o_s_'_:_ _'_C_D_'_}_,_ _'_*_'_,_ _'_(_'_,_ _{_'_n_o_d_e_T_y_p_e_'_:_ _'_N_o_u_n_C_h_u_n_k_'_}_,_ _'_|_'_,_ _{_'_n_o_d_e_T_y_p_e_'_:_ _'_N_o_u_n_C_h_u_n_k_'_}_,_ _'_(_'_,_ _{_'_n_o_d_e_T_y_p_e_'_:_ _'_T_o_k_e_n_'_,_ _'_p_o_s_'_:_ _'_I_N_'_}_,_ _'_|_'_,_ _{_'_t_e_x_t_'_:_ _[_'_a_n_d_'_,_ _'_o_r_'_]_,_ _'_n_o_d_e_T_y_p_e_'_:_ _'_T_o_k_e_n_'_,_ _'_p_o_s_'_:_ _'_C_C_'_}_,_ _'_)_'_,_ _{_'_n_o_d_e_T_y_p_e_'_:_ _'_N_o_u_n_C_h_u_n_k_'_}_,_ _'_)_'_,_ _'_)_'_,_ _'_(_'_,_ _{_'_t_e_n_s_e_'_:_ _'_I_N_F_I_N_I_T_I_V_E_'_,_ _'_n_o_d_e_T_y_p_e_'_:_ _'_V_e_r_b_C_h_u_n_k_'_}_,_ _'_|_'_,_ _{_'_t_e_x_t_'_:_ _'_t_o_'_,_ _'_p_o_s_'_:_ _'_T_O_'_}_,_ _{_'_p_o_s_'_:_ _'_U_H_'_}_,_ _'_?_'_,_ _'_(_'_,_ _{_'_n_o_d_e_T_y_p_e_'_:_ _'_V_e_r_b_C_h_u_n_k_'_,_ _'_e_v_e_n_t_S_t_a_t_u_s_'_:_ _'_1_'_}_,_ _'_|_'_,_ _{_'_n_o_d_e_T_y_p_e_'_:_ _'_N_o_u_n_C_h_u_n_k_'_,_ _'_e_v_e_n_t_S_t_a_t_u_s_'_:_ _'_1_'_}_,_ _'_)_'_,_ _'_)_'_]"
sg16
(lp52
I5
aI11
aI0
aI8
aI3
aI1
aI4
aI12
aI9
aI10
aI2
aI7
aI13
aI6
asg18
I0
sg19
(dsg20
I1
sg21
(lp53
(I0
I1
S"{'nodeType': 'NounChunk'}"
ta(I0
I2
S"{'nodeType': 'Token', 'pos': ['PP', 'PP$', 'PRP$', 'PRP']}"
ta(I0
I2
S"{'text': ['this', 'that', 'these', 'those'], 'nodeType': 'Token'}"
ta(I0
I3
S"{'nodeType': 'Token', 'pos': 'PDT'}"
ta(I0
I4
S"{'nodeType': 'Token', 'pos': 'DT'}"
ta(I1
I5
S"{'nodeType': 'Token', 'pos': 'IN'}"
ta(I1
I5
S"{'text': ['and', 'or'], 'nodeType': 'Token', 'pos': 'CC'}"
ta(I1
I6
S"{'tense': 'INFINITIVE', 'nodeType': 'VerbChunk'}"
ta(I1
I7
S"{'text': 'to', 'pos': 'TO'}"
ta(I2
I6
S"{'tense': 'INFINITIVE', 'nodeType': 'VerbChunk'}"
ta(I2
I7
S"{'text': 'to', 'pos': 'TO'}"
ta(I3
I1
S"{'nodeType': 'NounChunk'}"
ta(I3
I2
S"{'nodeType': 'Token', 'pos': ['PP', 'PP$', 'PRP$', 'PRP']}"
ta(I3
I2
S"{'text': ['this', 'that', 'these', 'those'], 'nodeType': 'Token'}"
ta(I3
I8
S"{'nodeType': 'Token', 'pos': 'DT'}"
ta(I4
I9
S"{'nodeType': 'NounChunk'}"
ta(I4
I3
S"{'nodeType': 'Token', 'pos': 'IN'}"
ta(I4
I8
S"{'nodeType': 'Token', 'pos': ['JJ', 'JJR', 'JJS']}"
ta(I4
I8
S"{'pos': 'SYM'}"
ta(I4
I10
S"{'nodeType': 'Token', 'pos': 'CD'}"
ta(I5
I11
S"{'nodeType': 'NounChunk'}"
ta(I7
I6
S"{'nodeType': 'NounChunk', 'eventStatus': '1'}"
ta(I7
I6
S"{'nodeType': 'VerbChunk', 'eventStatus': '1'}"
ta(I7
I12
S"{'pos': 'UH'}"
ta(I8
I9
S"{'nodeType': 'NounChunk'}"
ta(I8
I8
S"{'nodeType': 'Token', 'pos': ['JJ', 'JJR', 'JJS']}"
ta(I8
I8
S"{'pos': 'SYM'}"
ta(I8
I10
S"{'nodeType': 'Token', 'pos': 'CD'}"
ta(I9
I13
S"{'nodeType': 'Token', 'pos': 'IN'}"
ta(I9
I13
S"{'text': ['and', 'or'], 'nodeType': 'Token', 'pos': 'CC'}"
ta(I9
I6
S"{'tense': 'INFINITIVE', 'nodeType': 'VerbChunk'}"
ta(I9
I7
S"{'text': 'to', 'pos': 'TO'}"
ta(I10
I9
S"{'nodeType': 'NounChunk'}"
ta(I10
I10
S"{'nodeType': 'Token', 'pos': 'CD'}"
ta(I11
I13
S"{'nodeType': 'Token', 'pos': 'IN'}"
ta(I11
I6
S"{'tense': 'INFINITIVE', 'nodeType': 'VerbChunk'}"
ta(I11
I7
S"{'text': 'to', 'pos': 'TO'}"
ta(I12
I6
S"{'nodeType': 'NounChunk', 'eventStatus': '1'}"
ta(I12
I6
S"{'nodeType': 'VerbChunk', 'eventStatus': '1'}"
ta(I13
I2
S"{'nodeType': 'NounChunk'}"
tasg23
I1
sg24
I1
sba(iFSA
FSA
p54
(dp55
g9
S'toClause5'
p56
sg11
(lp57
I6
asg13
Nsg14
I1
sg15
S"[_{_'_n_o_d_e_T_y_p_e_'_:_ _'_T_o_k_e_n_'_,_ _'_p_o_s_'_:_ _'_I_N_'_}_,_ _{_'_n_o_d_e_T_y_p_e_'_:_ _'_T_o_k_e_n_'_,_ _'_p_o_s_'_:_ _'_P_D_T_'_}_,_ _'_?_'_,_ _{_'_n_o_d_e_T_y_p_e_'_:_ _'_N_o_u_n_C_h_u_n_k_'_}_,_ _{_'_n_o_d_e_T_y_p_e_'_:_ _'_T_o_k_e_n_'_,_ _'_p_o_s_'_:_ _'_I_N_'_}_,_ _'_?_'_,_ _{_'_n_o_d_e_T_y_p_e_'_:_ _'_T_o_k_e_n_'_,_ _'_p_o_s_'_:_ _'_P_D_T_'_}_,_ _'_?_'_,_ _{_'_n_o_d_e_T_y_p_e_'_:_ _'_N_o_u_n_C_h_u_n_k_'_}_,_ _'_?_'_,_ _'_(_'_,_ _{_'_t_e_n_s_e_'_:_ _'_I_N_F_I_N_I_T_I_V_E_'_,_ _'_n_o_d_e_T_y_p_e_'_:_ _'_V_e_r_b_C_h_u_n_k_'_}_,_ _'_|_'_,_ _{_'_t_e_x_t_'_:_ _'_t_o_'_,_ _'_p_o_s_'_:_ _'_T_O_'_}_,_ _{_'_p_o_s_'_:_ _'_U_H_'_}_,_ _'_?_'_,_ _'_(_'_,_ _{_'_n_o_d_e_T_y_p_e_'_:_ _'_V_e_r_b_C_h_u_n_k_'_,_ _'_e_v_e_n_t_S_t_a_t_u_s_'_:_ _'_1_'_}_,_ _'_|_'_,_ _{_'_n_o_d_e_T_y_p_e_'_:_ _'_N_o_u_n_C_h_u_n_k_'_,_ _'_e_v_e_n_t_S_t_a_t_u_s_'_:_ _'_1_'_}_,_ _'_)_'_,_ _'_)_'_]"
sg16
(lp58
I8
aI9
aI6
aI1
aI0
aI3
aI2
aI4
aI7
aI5
asg18
I0
sg19
(dsg20
I1
sg21
(lp59
(I0
I1
S"{'nodeType': 'Token', 'pos': 'IN'}"
ta(I1
I2
S"{'nodeType': 'NounChunk'}"
ta(I1
I3
S"{'nodeType': 'Token', 'pos': 'PDT'}"
ta(I2
I4
S"{'nodeType': 'NounChunk'}"
ta(I2
I5
S"{'text': 'to', 'pos': 'TO'}"
ta(I2
I6
S"{'tense': 'INFINITIVE', 'nodeType': 'VerbChunk'}"
ta(I2
I7
S"{'nodeType': 'Token', 'pos': 'PDT'}"
ta(I2
I8
S"{'nodeType': 'Token', 'pos': 'IN'}"
ta(I3
I2
S"{'nodeType': 'NounChunk'}"
ta(I4
I6
S"{'tense': 'INFINITIVE', 'nodeType': 'VerbChunk'}"
ta(I4
I5
S"{'text': 'to', 'pos': 'TO'}"
ta(I5
I6
S"{'nodeType': 'NounChunk', 'eventStatus': '1'}"
ta(I5
I6
S"{'nodeType': 'VerbChunk', 'eventStatus': '1'}"
ta(I5
I9
S"{'pos': 'UH'}"
ta(I7
I4
S"{'nodeType': 'NounChunk'}"
ta(I7
I6
S"{'tense': 'INFINITIVE', 'nodeType': 'VerbChunk'}"
ta(I7
I5
S"{'text': 'to', 'pos': 'TO'}"
ta(I8
I4
S"{'nodeType': 'NounChunk'}"
ta(I8
I6
S"{'tense': 'INFINITIVE', 'nodeType': 'VerbChunk'}"
ta(I8
I7
S"{'nodeType': 'Token', 'pos': 'PDT'}"
ta(I8
I5
S"{'text': 'to', 'pos': 'TO'}"
ta(I9
I6
S"{'nodeType': 'NounChunk', 'eventStatus': '1'}"
ta(I9
I6
S"{'nodeType': 'VerbChunk', 'eventStatus': '1'}"
tasg23
I1
sg24
I1
sbaa(lp60
(iFSA
FSA
p61
(dp62
g9
S'thatClause_if'
p63
sg11
(lp64
I4
asg13
Nsg14
I1
sg15
S'[_{_\'_t_e_x_t_\'_:_ _(_\'_^_\'_,_ _[_\'_,_\'_]_)_}_,_ _{_\'_t_e_x_t_\'_:_ _(_\'_^_\'_,_ _[_\'_;_\'_,_ _\'_._\'_,_ _\'_!_\'_,_ _\'_?_\'_,_ _\'_._._._\'_,_ _\'_"_\'_,_ _\'_`_`_\'_]_)_,_ _\'_p_o_s_\'_:_ _(_\'_^_\'_,_ _[_\'_W_P_\'_,_ _\'_W_D_T_\'_,_ _\'_W_R_B_\'_,_ _\'_"_\'_,_ _"_\'_\'_"_,_ _\'_`_`_\'_]_)_}_,_ _\'_?_\'_,_ _{_\'_t_e_x_t_\'_:_ _(_\'_^_\'_,_ _[_\'_;_\'_,_ _\'_._\'_,_ _\'_!_\'_,_ _\'_?_\'_,_ _\'_._._._\'_,_ _\'_"_\'_,_ _\'_`_`_\'_]_)_,_ _\'_p_o_s_\'_:_ _(_\'_^_\'_,_ _[_\'_W_P_\'_,_ _\'_W_D_T_\'_,_ _\'_W_R_B_\'_,_ _\'_"_\'_,_ _"_\'_\'_"_,_ _\'_`_`_\'_]_)_}_,_ _\'_?_\'_,_ _{_\'_t_e_x_t_\'_:_ _[_\'_i_f_\'_,_ _\'_w_h_e_t_h_e_r_\'_]_,_ _\'_n_o_d_e_T_y_p_e_\'_:_ _\'_T_o_k_e_n_\'_}_,_ _{_\'_t_e_x_t_\'_:_ _(_\'_^_\'_,_ _[_\'_;_\'_,_ _\'_._\'_,_ _\'_!_\'_,_ _\'_?_\'_,_ _\'_._._._\'_,_ _\'_"_\'_,_ _\'_`_`_\'_]_)_,_ _\'_p_o_s_\'_:_ _(_\'_^_\'_,_ _[_\'_W_P_\'_,_ _\'_W_D_T_\'_,_ _\'_W_R_B_\'_,_ _\'_"_\'_,_ _"_\'_\'_"_,_ _\'_`_`_\'_]_)_}_,_ _\'_?_\'_,_ _{_\'_t_e_x_t_\'_:_ _(_\'_^_\'_,_ _[_\'_;_\'_,_ _\'_._\'_,_ _\'_!_\'_,_ _\'_?_\'_,_ _\'_._._._\'_,_ _\'_"_\'_,_ _\'_`_`_\'_]_)_,_ _\'_p_o_s_\'_:_ _(_\'_^_\'_,_ _[_\'_W_P_\'_,_ _\'_W_D_T_\'_,_ _\'_W_R_B_\'_,_ _\'_"_\'_,_ _"_\'_\'_"_,_ _\'_`_`_\'_]_)_}_,_ _\'_?_\'_,_ _{_\'_t_e_x_t_\'_:_ _(_\'_^_\'_,_ _[_\'_;_\'_,_ _\'_._\'_,_ _\'_!_\'_,_ _\'_?_\'_,_ _\'_._._._\'_,_ _\'_"_\'_,_ _\'_`_`_\'_]_)_,_ _\'_p_o_s_\'_:_ _(_\'_^_\'_,_ _[_\'_W_P_\'_,_ _\'_W_D_T_\'_,_ _\'_W_R_B_\'_,_ _\'_"_\'_,_ _"_\'_\'_"_,_ _\'_`_`_\'_]_)_}_,_ _\'_?_\'_,_ _{_\'_t_e_x_t_\'_:_ _(_\'_^_\'_,_ _[_\'_;_\'_,_ _\'_._\'_,_ _\'_!_\'_,_ _\'_?_\'_,_ _\'_._._._\'_,_ _\'_"_\'_,_ _\'_`_`_\'_]_)_,_ _\'_p_o_s_\'_:_ _(_\'_^_\'_,_ _[_\'_W_P_\'_,_ _\'_W_D_T_\'_,_ _\'_W_R_B_\'_,_ _\'_"_\'_,_ _"_\'_\'_"_,_ _\'_`_`_\'_]_)_}_,_ _\'_?_\'_,_ _{_\'_t_e_x_t_\'_:_ _(_\'_^_\'_,_ _[_\'_;_\'_,_ _\'_._\'_,_ _\'_!_\'_,_ _\'_?_\'_,_ _\'_._._._\'_,_ _\'_"_\'_,_ _\'_`_`_\'_]_)_,_ _\'_p_o_s_\'_:_ _(_\'_^_\'_,_ _[_\'_W_P_\'_,_ _\'_W_D_T_\'_,_ _\'_W_R_B_\'_,_ _\'_"_\'_,_ _"_\'_\'_"_,_ _\'_`_`_\'_]_)_}_,_ _\'_?_\'_,_ _{_\'_t_e_x_t_\'_:_ _(_\'_^_\'_,_ _[_\'_;_\'_,_ _\'_._\'_,_ _\'_!_\'_,_ _\'_?_\'_,_ _\'_._._._\'_,_ _\'_"_\'_,_ _\'_`_`_\'_]_)_,_ _\'_p_o_s_\'_:_ _(_\'_^_\'_,_ _[_\'_W_P_\'_,_ _\'_W_D_T_\'_,_ _\'_W_R_B_\'_,_ _\'_"_\'_,_ _"_\'_\'_"_,_ _\'_`_`_\'_]_)_}_,_ _\'_?_\'_,_ _\'_(_\'_,_ _{_\'_t_e_n_s_e_\'_:_ _[_\'_P_A_S_T_\'_,_ _\'_P_R_E_S_E_N_T_\'_,_ _\'_F_U_T_U_R_E_\'_]_,_ _\'_n_o_d_e_T_y_p_e_\'_:_ _[_\'_C_h_u_n_k_\'_,_ _\'_N_o_u_n_C_h_u_n_k_\'_,_ _\'_V_e_r_b_C_h_u_n_k_\'_,_ _\'_A_d_j_e_c_t_i_v_e_T_o_k_e_n_\'_]_}_,_ _\'_|_\'_,_ _{_\'_n_o_d_e_T_y_p_e_\'_:_ _[_\'_C_h_u_n_k_\'_,_ _\'_N_o_u_n_C_h_u_n_k_\'_,_ _\'_V_e_r_b_C_h_u_n_k_\'_,_ _\'_A_d_j_e_c_t_i_v_e_T_o_k_e_n_\'_]_,_ _\'_m_o_d_a_l_i_t_y_\'_:_ _[_\'_m_a_y_\'_,_ _\'_c_a_n_\'_,_ _\'_m_u_s_t_\'_,_ _\'_m_i_g_h_t_\'_,_ _\'_c_o_u_l_d_\'_,_ _\'_s_h_o_u_l_d_\'_,_ _\'_w_o_u_l_d_\'_,_ _\'_o_u_g_h_t_\'_,_ _\'_h_a_v_e_ _t_o_\'_]_}_,_ _\'_)_\'_]'
sg16
(lp65
I8
aI7
aI10
aI9
aI11
aI1
aI0
aI3
aI2
aI4
aI6
aI5
asg18
I0
sg19
(dsg20
I1
sg21
(lp66
(I0
I1
S"{'text': ('^', [','])}"
ta(I1
I2
S"{'text': ['if', 'whether'], 'nodeType': 'Token'}"
ta(I1
I3
S'{\'text\': (\'^\', [\';\', \'.\', \'!\', \'?\', \'...\', \'"\', \'``\']), \'pos\': (\'^\', [\'WP\', \'WDT\', \'WRB\', \'"\', "\'\'", \'``\'])}'
ta(I2
I4
S"{'nodeType': ['Chunk', 'NounChunk', 'VerbChunk', 'AdjectiveToken'], 'modality': ['may', 'can', 'must', 'might', 'could', 'should', 'would', 'ought', 'have to']}"
ta(I2
I4
S"{'tense': ['PAST', 'PRESENT', 'FUTURE'], 'nodeType': ['Chunk', 'NounChunk', 'VerbChunk', 'AdjectiveToken']}"
ta(I2
I5
S'{\'text\': (\'^\', [\';\', \'.\', \'!\', \'?\', \'...\', \'"\', \'``\']), \'pos\': (\'^\', [\'WP\', \'WDT\', \'WRB\', \'"\', "\'\'", \'``\'])}'
ta(I3
I2
S"{'text': ['if', 'whether'], 'nodeType': 'Token'}"
ta(I3
I6
S'{\'text\': (\'^\', [\';\', \'.\', \'!\', \'?\', \'...\', \'"\', \'``\']), \'pos\': (\'^\', [\'WP\', \'WDT\', \'WRB\', \'"\', "\'\'", \'``\'])}'
ta(I5
I4
S"{'nodeType': ['Chunk', 'NounChunk', 'VerbChunk', 'AdjectiveToken'], 'modality': ['may', 'can', 'must', 'might', 'could', 'should', 'would', 'ought', 'have to']}"
ta(I5
I4
S"{'tense': ['PAST', 'PRESENT', 'FUTURE'], 'nodeType': ['Chunk', 'NounChunk', 'VerbChunk', 'AdjectiveToken']}"
ta(I5
I7
S'{\'text\': (\'^\', [\';\', \'.\', \'!\', \'?\', \'...\', \'"\', \'``\']), \'pos\': (\'^\', [\'WP\', \'WDT\', \'WRB\', \'"\', "\'\'", \'``\'])}'
ta(I6
I2
S"{'text': ['if', 'whether'], 'nodeType': 'Token'}"
ta(I7
I4
S"{'nodeType': ['Chunk', 'NounChunk', 'VerbChunk', 'AdjectiveToken'], 'modality': ['may', 'can', 'must', 'might', 'could', 'should', 'would', 'ought', 'have to']}"
ta(I7
I4
S"{'tense': ['PAST', 'PRESENT', 'FUTURE'], 'nodeType': ['Chunk', 'NounChunk', 'VerbChunk', 'AdjectiveToken']}"
ta(I7
I8
S'{\'text\': (\'^\', [\';\', \'.\', \'!\', \'?\', \'...\', \'"\', \'``\']), \'pos\': (\'^\', [\'WP\', \'WDT\', \'WRB\', \'"\', "\'\'", \'``\'])}'
ta(I8
I4
S"{'nodeType': ['Chunk', 'NounChunk', 'VerbChunk', 'AdjectiveToken'], 'modality': ['may', 'can', 'must', 'might', 'could', 'should', 'would', 'ought', 'have to']}"
ta(I8
I4
S"{'tense': ['PAST', 'PRESENT', 'FUTURE'], 'nodeType': ['Chunk', 'NounChunk', 'VerbChunk', 'AdjectiveToken']}"
ta(I8
I9
S'{\'text\': (\'^\', [\';\', \'.\', \'!\', \'?\', \'...\', \'"\', \'``\']), \'pos\': (\'^\', [\'WP\', \'WDT\', \'WRB\', \'"\', "\'\'", \'``\'])}'
ta(I9
I4
S"{'nodeType': ['Chunk', 'NounChunk', 'VerbChunk', 'AdjectiveToken'], 'modality': ['may', 'can', 'must', 'might', 'could', 'should', 'would', 'ought', 'have to']}"
ta(I9
I4
S"{'tense': ['PAST', 'PRESENT', 'FUTURE'], 'nodeType': ['Chunk', 'NounChunk', 'VerbChunk', 'AdjectiveToken']}"
ta(I9
I10
S'{\'text\': (\'^\', [\';\', \'.\', \'!\', \'?\', \'...\', \'"\', \'``\']), \'pos\': (\'^\', [\'WP\', \'WDT\', \'WRB\', \'"\', "\'\'", \'``\'])}'
ta(I10
I4
S"{'nodeType': ['Chunk', 'NounChunk', 'VerbChunk', 'AdjectiveToken'], 'modality': ['may', 'can', 'must', 'might', 'could', 'should', 'would', 'ought', 'have to']}"
ta(I10
I4
S"{'tense': ['PAST', 'PRESENT', 'FUTURE'], 'nodeType': ['Chunk', 'NounChunk', 'VerbChunk', 'AdjectiveToken']}"
ta(I10
I11
S'{\'text\': (\'^\', [\';\', \'.\', \'!\', \'?\', \'...\', \'"\', \'``\']), \'pos\': (\'^\', [\'WP\', \'WDT\', \'WRB\', \'"\', "\'\'", \'``\'])}'
ta(I11
I4
S"{'nodeType': ['Chunk', 'NounChunk', 'VerbChunk', 'AdjectiveToken'], 'modality': ['may', 'can', 'must', 'might', 'could', 'should', 'would', 'ought', 'have to']}"
ta(I11
I4
S"{'tense': ['PAST', 'PRESENT', 'FUTURE'], 'nodeType': ['Chunk', 'NounChunk', 'VerbChunk', 'AdjectiveToken']}"
tasg23
I1
sg24
I1
sbaa(lp67
S'FACTIVE'
p68
ag26
ag26
atsg27
((lp69
(lp70
g30
aa(lp71
g68
atssS'relevant'
p72
(dp73
g4
((lp74
(lp75
g7
aa(lp76
g42
ag48
ag54
aa(lp77
g68
ag26
atsg27
((lp78
(lp79
g30
aa(lp80
g68
atssS'false'
p81
(dp82
g4
((lp83
(lp84
g7
a(iFSA
FSA
p85
(dp86
g9
S'thatClause_NOT_that'
p87
sg11
(lp88
I2
asg13
Nsg14
I1
sg15
S'[_{_\'_t_e_x_t_\'_:_ _(_\'_^_\'_,_ _[_\'_,_\'_]_)_}_,_ _{_\'_t_e_x_t_\'_:_ _(_\'_^_\'_,_ _[_\'_;_\'_,_ _\'_._\'_,_ _\'_!_\'_,_ _\'_?_\'_,_ _\'_._._._\'_,_ _\'_"_\'_]_)_,_ _\'_p_o_s_\'_:_ _(_\'_^_\'_,_ _[_\'_W_P_\'_,_ _\'_W_D_T_\'_,_ _\'_W_R_B_\'_,_ _\'_"_\'_,_ _"_\'_\'_"_]_)_}_,_ _\'_?_\'_,_ _\'_(_\'_,_ _{_\'_t_e_x_t_\'_:_ _(_\'_^_\'_,_ _[_\'_;_\'_,_ _\'_._\'_,_ _\'_!_\'_,_ _\'_?_\'_,_ _\'_._._._\'_,_ _\'_"_\'_,_ _\'_`_`_\'_]_)_,_ _\'_p_o_s_\'_:_ _(_\'_^_\'_,_ _[_\'_W_P_\'_,_ _\'_W_D_T_\'_,_ _\'_W_R_B_\'_,_ _\'_"_\'_,_ _"_\'_\'_"_,_ _\'_`_`_\'_]_)_}_,_ _\'_?_\'_,_ _{_\'_t_e_x_t_\'_:_ _(_\'_^_\'_,_ _[_\'_;_\'_,_ _\'_._\'_,_ _\'_!_\'_,_ _\'_?_\'_,_ _\'_._._._\'_,_ _\'_"_\'_,_ _\'_`_`_\'_]_)_,_ _\'_p_o_s_\'_:_ _(_\'_^_\'_,_ _[_\'_W_P_\'_,_ _\'_W_D_T_\'_,_ _\'_W_R_B_\'_,_ _\'_"_\'_,_ _"_\'_\'_"_,_ _\'_`_`_\'_]_)_}_,_ _\'_?_\'_,_ _{_\'_t_e_x_t_\'_:_ _(_\'_^_\'_,_ _[_\'_;_\'_,_ _\'_._\'_,_ _\'_!_\'_,_ _\'_?_\'_,_ _\'_._._._\'_,_ _\'_"_\'_,_ _\'_`_`_\'_]_)_,_ _\'_p_o_s_\'_:_ _(_\'_^_\'_,_ _[_\'_W_P_\'_,_ _\'_W_D_T_\'_,_ _\'_W_R_B_\'_,_ _\'_"_\'_,_ _"_\'_\'_"_,_ _\'_`_`_\'_]_)_}_,_ _\'_?_\'_,_ _{_\'_t_e_x_t_\'_:_ _(_\'_^_\'_,_ _[_\'_;_\'_,_ _\'_._\'_,_ _\'_!_\'_,_ _\'_?_\'_,_ _\'_._._._\'_,_ _\'_"_\'_,_ _\'_`_`_\'_]_)_,_ _\'_p_o_s_\'_:_ _(_\'_^_\'_,_ _[_\'_W_P_\'_,_ _\'_W_D_T_\'_,_ _\'_W_R_B_\'_,_ _\'_"_\'_,_ _"_\'_\'_"_,_ _\'_`_`_\'_]_)_}_,_ _\'_?_\'_,_ _{_\'_t_e_x_t_\'_:_ _(_\'_^_\'_,_ _[_\'_;_\'_,_ _\'_._\'_,_ _\'_!_\'_,_ _\'_?_\'_,_ _\'_._._._\'_,_ _\'_"_\'_,_ _\'_`_`_\'_]_)_,_ _\'_p_o_s_\'_:_ _(_\'_^_\'_,_ _[_\'_W_P_\'_,_ _\'_W_D_T_\'_,_ _\'_W_R_B_\'_,_ _\'_"_\'_,_ _"_\'_\'_"_,_ _\'_`_`_\'_]_)_}_,_ _\'_?_\'_,_ _\'_(_\'_,_ _{_\'_t_e_n_s_e_\'_:_ _[_\'_P_A_S_T_\'_,_ _\'_P_R_E_S_E_N_T_\'_,_ _\'_F_U_T_U_R_E_\'_]_,_ _\'_n_o_d_e_T_y_p_e_\'_:_ _[_\'_C_h_u_n_k_\'_,_ _\'_N_o_u_n_C_h_u_n_k_\'_,_ _\'_V_e_r_b_C_h_u_n_k_\'_,_ _\'_A_d_j_e_c_t_i_v_e_T_o_k_e_n_\'_]_}_,_ _\'_|_\'_,_ _{_\'_n_o_d_e_T_y_p_e_\'_:_ _[_\'_C_h_u_n_k_\'_,_ _\'_N_o_u_n_C_h_u_n_k_\'_,_ _\'_V_e_r_b_C_h_u_n_k_\'_,_ _\'_A_d_j_e_c_t_i_v_e_T_o_k_e_n_\'_]_,_ _\'_m_o_d_a_l_i_t_y_\'_:_ _[_\'_m_a_y_\'_,_ _\'_c_a_n_\'_,_ _\'_m_u_s_t_\'_,_ _\'_m_i_g_h_t_\'_,_ _\'_c_o_u_l_d_\'_,_ _\'_s_h_o_u_l_d_\'_,_ _\'_w_o_u_l_d_\'_,_ _\'_o_u_g_h_t_\'_,_ _\'_h_a_v_e_ _t_o_\'_]_}_,_ _\'_)_\'_,_ _\'_|_\'_,_ _{_\'_t_e_x_t_\'_:_ _[_\'_i_s_\'_,_ _\'_w_a_s_\'_,_ _\'_w_e_r_e_\'_,_ _\'_a_m_\'_,_ _\'_b_e_\'_,_ _"_\'_s_"_,_ _\'_a_r_e_\'_,_ _"_\'_r_e_"_,_ _"_\'_m_"_,_ _\'_b_e_e_n_\'_,_ _\'_b_e_i_n_g_\'_]_,_ _\'_n_o_d_e_T_y_p_e_\'_:_ _\'_V_e_r_b_C_h_u_n_k_\'_}_,_ _{_\'_n_o_d_e_T_y_p_e_\'_:_ _\'_T_o_k_e_n_\'_,_ _\'_p_o_s_\'_:_ _\'_I_N_\'_}_,_ _\'_?_\'_,_ _{_\'_n_o_d_e_T_y_p_e_\'_:_ _\'_N_o_u_n_C_h_u_n_k_\'_,_ _\'_e_v_e_n_t_S_t_a_t_u_s_\'_:_ _\'_1_\'_}_,_ _\'_)_\'_]'
sg16
(lp89
I7
aI5
aI9
aI1
aI3
aI10
aI4
aI8
aI0
aI2
aI6
asg18
I0
sg19
(dsg20
I1
sg21
(lp90
(I0
I1
S"{'text': ('^', [','])}"
ta(I1
I2
S"{'nodeType': ['Chunk', 'NounChunk', 'VerbChunk', 'AdjectiveToken'], 'modality': ['may', 'can', 'must', 'might', 'could', 'should', 'would', 'ought', 'have to']}"
ta(I1
I2
S"{'tense': ['PAST', 'PRESENT', 'FUTURE'], 'nodeType': ['Chunk', 'NounChunk', 'VerbChunk', 'AdjectiveToken']}"
ta(I1
I3
S'{\'text\': [\'is\', \'was\', \'were\', \'am\', \'be\', "\'s", \'are\', "\'re", "\'m", \'been\', \'being\'], \'nodeType\': \'VerbChunk\'}'
ta(I1
I4
S'{\'text\': (\'^\', [\';\', \'.\', \'!\', \'?\', \'...\', \'"\']), \'pos\': (\'^\', [\'WP\', \'WDT\', \'WRB\', \'"\', "\'\'"])}'
ta(I1
I5
S'{\'text\': (\'^\', [\';\', \'.\', \'!\', \'?\', \'...\', \'"\', \'``\']), \'pos\': (\'^\', [\'WP\', \'WDT\', \'WRB\', \'"\', "\'\'", \'``\'])}'
ta(I3
I6
S"{'nodeType': 'Token', 'pos': 'IN'}"
ta(I3
I2
S"{'nodeType': 'NounChunk', 'eventStatus': '1'}"
ta(I4
I2
S"{'nodeType': ['Chunk', 'NounChunk', 'VerbChunk', 'AdjectiveToken'], 'modality': ['may', 'can', 'must', 'might', 'could', 'should', 'would', 'ought', 'have to']}"
ta(I4
I2
S"{'tense': ['PAST', 'PRESENT', 'FUTURE'], 'nodeType': ['Chunk', 'NounChunk', 'VerbChunk', 'AdjectiveToken']}"
ta(I4
I3
S'{\'text\': [\'is\', \'was\', \'were\', \'am\', \'be\', "\'s", \'are\', "\'re", "\'m", \'been\', \'being\'], \'nodeType\': \'VerbChunk\'}'
ta(I4
I5
S'{\'text\': (\'^\', [\';\', \'.\', \'!\', \'?\', \'...\', \'"\', \'``\']), \'pos\': (\'^\', [\'WP\', \'WDT\', \'WRB\', \'"\', "\'\'", \'``\'])}'
ta(I5
I2
S"{'nodeType': ['Chunk', 'NounChunk', 'VerbChunk', 'AdjectiveToken'], 'modality': ['may', 'can', 'must', 'might', 'could', 'should', 'would', 'ought', 'have to']}"
ta(I5
I2
S"{'tense': ['PAST', 'PRESENT', 'FUTURE'], 'nodeType': ['Chunk', 'NounChunk', 'VerbChunk', 'AdjectiveToken']}"
ta(I5
I7
S'{\'text\': (\'^\', [\';\', \'.\', \'!\', \'?\', \'...\', \'"\', \'``\']), \'pos\': (\'^\', [\'WP\', \'WDT\', \'WRB\', \'"\', "\'\'", \'``\'])}'
ta(I6
I2
S"{'nodeType': 'NounChunk', 'eventStatus': '1'}"
ta(I7
I2
S"{'nodeType': ['Chunk', 'NounChunk', 'VerbChunk', 'AdjectiveToken'], 'modality': ['may', 'can', 'must', 'might', 'could', 'should', 'would', 'ought', 'have to']}"
ta(I7
I2
S"{'tense': ['PAST', 'PRESENT', 'FUTURE'], 'nodeType': ['Chunk', 'NounChunk', 'VerbChunk', 'AdjectiveToken']}"
ta(I7
I8
S'{\'text\': (\'^\', [\';\', \'.\', \'!\', \'?\', \'...\', \'"\', \'``\']), \'pos\': (\'^\', [\'WP\', \'WDT\', \'WRB\', \'"\', "\'\'", \'``\'])}'
ta(I8
I2
S"{'nodeType': ['Chunk', 'NounChunk', 'VerbChunk', 'AdjectiveToken'], 'modality': ['may', 'can', 'must', 'might', 'could', 'should', 'would', 'ought', 'have to']}"
ta(I8
I2
S"{'tense': ['PAST', 'PRESENT', 'FUTURE'], 'nodeType': ['Chunk', 'NounChunk', 'VerbChunk', 'AdjectiveToken']}"
ta(I8
I9
S'{\'text\': (\'^\', [\';\', \'.\', \'!\', \'?\', \'...\', \'"\', \'``\']), \'pos\': (\'^\', [\'WP\', \'WDT\', \'WRB\', \'"\', "\'\'", \'``\'])}'
ta(I9
I2
S"{'nodeType': ['Chunk', 'NounChunk', 'VerbChunk', 'AdjectiveToken'], 'modality': ['may', 'can', 'must', 'might', 'could', 'should', 'would', 'ought', 'have to']}"
ta(I9
I2
S"{'tense': ['PAST', 'PRESENT', 'FUTURE'], 'nodeType': ['Chunk', 'NounChunk', 'VerbChunk', 'AdjectiveToken']}"
ta(I9
I10
S'{\'text\': (\'^\', [\';\', \'.\', \'!\', \'?\', \'...\', \'"\', \'``\']), \'pos\': (\'^\', [\'WP\', \'WDT\', \'WRB\', \'"\', "\'\'", \'``\'])}'
ta(I10
I2
S"{'nodeType': ['Chunk', 'NounChunk', 'VerbChunk', 'AdjectiveToken'], 'modality': ['may', 'can', 'must', 'might', 'could', 'should', 'would', 'ought', 'have to']}"
ta(I10
I2
S"{'tense': ['PAST', 'PRESENT', 'FUTURE'], 'nodeType': ['Chunk', 'NounChunk', 'VerbChunk', 'AdjectiveToken']}"
tasg23
I1
sg24
I1
sbaa(lp91
S'COUNTER_FACTIVE'
p92
atssS'worthwhile'
p93
(dp94
g4
((lp95
(lp96
g42
ag48
ag54
aa(lp97
g26
atssS'certain'
p98
(dp99
g4
((lp100
(lp101
g7
aa(lp102
g68
atssS'sad'
p103
(dp104
g4
((lp105
(lp106
g7
aa(lp107
g42
ag48
ag54
aa(lp108
g61
aa(lp109
g68
ag26
ag26
atssS'well-known'
(dp110
g4
((lp111
(lp112
g7
aa(lp113
g68
atssS'improbable'
p114
(dp115
g4
((lp116
(lp117
g7
ag85
aa(lp118
g42
ag48
ag54
aa(lp119
g26
ag26
atsg27
((lp120
(lp121
g30
aa(lp122
g26
atssS'likely'
p123
(dp124
g4
((lp125
(lp126
g42
ag48
ag54
ag7
ag85
aa(lp127
g26
atsg27
((lp128
(lp129
g30
aa(lp130
g26
atssS'accused'
p131
(dp132
g4
((lp133
(lp134
(iFSA
FSA
p135
(dp136
g9
S'of_NPev'
p137
sg11
(lp138
I4
asg13
Nsg14
I1
sg15
S"[_{_'_n_o_d_e_T_y_p_e_'_:_ _'_T_o_k_e_n_'_,_ _'_p_o_s_'_:_ _'_P_D_T_'_}_,_ _'_?_'_,_ _{_'_n_o_d_e_T_y_p_e_'_:_ _'_N_o_u_n_C_h_u_n_k_'_}_,_ _'_?_'_,_ _{_'_t_e_x_t_'_:_ _'_o_f_'_}_,_ _{_'_n_o_d_e_T_y_p_e_'_:_ _'_T_o_k_e_n_'_,_ _'_p_o_s_'_:_ _'_P_D_T_'_}_,_ _'_?_'_,_ _'_(_'_,_ _{_'_n_o_d_e_T_y_p_e_'_:_ _'_N_o_u_n_C_h_u_n_k_'_,_ _'_e_v_e_n_t_S_t_a_t_u_s_'_:_ _'_1_'_}_,_ _'_|_'_,_ _{_'_n_o_d_e_T_y_p_e_'_:_ _'_T_o_k_e_n_'_,_ _'_p_o_s_'_:_ _'_D_T_'_}_,_ _'_(_'_,_ _{_'_n_o_d_e_T_y_p_e_'_:_ _'_T_o_k_e_n_'_,_ _'_p_o_s_'_:_ _[_'_J_J_'_,_ _'_J_J_R_'_,_ _'_J_J_S_'_]_}_,_ _'_|_'_,_ _{_'_n_o_d_e_T_y_p_e_'_:_ _'_V_e_r_b_C_h_u_n_k_'_,_ _'_p_o_s_'_:_ _[_'_V_G_B_'_,_ _'_V_B_N_'_]_}_,_ _'_|_'_,_ _{_'_p_o_s_'_:_ _'_S_Y_M_'_}_,_ _'_)_'_,_ _'_*_'_,_ _{_'_n_o_d_e_T_y_p_e_'_:_ _'_T_o_k_e_n_'_,_ _'_p_o_s_'_:_ _'_C_D_'_}_,_ _'_*_'_,_ _{_'_n_o_d_e_T_y_p_e_'_:_ _'_N_o_u_n_C_h_u_n_k_'_}_,_ _'_)_'_]"
sg16
(lp139
I7
aI6
aI1
aI0
aI3
aI2
aI5
aI4
asg18
I0
sg19
(dsg20
I1
sg21
(lp140
(I0
I1
S"{'nodeType': 'NounChunk'}"
ta(I0
I2
S"{'nodeType': 'Token', 'pos': 'PDT'}"
ta(I0
I3
S"{'text': 'of'}"
ta(I1
I3
S"{'text': 'of'}"
ta(I2
I1
S"{'nodeType': 'NounChunk'}"
ta(I2
I3
S"{'text': 'of'}"
ta(I3
I4
S"{'nodeType': 'NounChunk', 'eventStatus': '1'}"
ta(I3
I5
S"{'nodeType': 'Token', 'pos': 'PDT'}"
ta(I3
I6
S"{'nodeType': 'Token', 'pos': 'DT'}"
ta(I5
I4
S"{'nodeType': 'NounChunk', 'eventStatus': '1'}"
ta(I5
I6
S"{'nodeType': 'Token', 'pos': 'DT'}"
ta(I6
I4
S"{'nodeType': 'NounChunk'}"
ta(I6
I6
S"{'nodeType': 'Token', 'pos': ['JJ', 'JJR', 'JJS']}"
ta(I6
I6
S"{'nodeType': 'VerbChunk', 'pos': ['VGB', 'VBN']}"
ta(I6
I6
S"{'pos': 'SYM'}"
ta(I6
I7
S"{'nodeType': 'Token', 'pos': 'CD'}"
ta(I7
I4
S"{'nodeType': 'NounChunk'}"
ta(I7
I7
S"{'nodeType': 'Token', 'pos': 'CD'}"
tasg23
I1
sg24
I1
sba(iFSA
FSA
p141
(dp142
g9
S'ofING_clause'
p143
sg11
(lp144
I5
asg13
Nsg14
I1
sg15
S"[_{_'_n_o_d_e_T_y_p_e_'_:_ _'_T_o_k_e_n_'_,_ _'_p_o_s_'_:_ _'_I_N_'_}_,_ _'_?_'_,_ _{_'_n_o_d_e_T_y_p_e_'_:_ _'_T_o_k_e_n_'_,_ _'_p_o_s_'_:_ _'_P_D_T_'_}_,_ _'_?_'_,_ _{_'_n_o_d_e_T_y_p_e_'_:_ _'_N_o_u_n_C_h_u_n_k_'_}_,_ _'_?_'_,_ _{_'_t_e_x_t_'_:_ _'_o_f_'_}_,_ _{_'_n_o_d_e_T_y_p_e_'_:_ _'_V_e_r_b_C_h_u_n_k_'_,_ _'_e_v_e_n_t_S_t_a_t_u_s_'_:_ _'_1_'_}_]"
sg16
(lp145
I1
aI0
aI3
aI2
aI5
aI4
asg18
I0
sg19
(dsg20
I1
sg21
(lp146
(I0
I1
S"{'nodeType': 'Token', 'pos': 'IN'}"
ta(I0
I2
S"{'nodeType': 'NounChunk'}"
ta(I0
I3
S"{'nodeType': 'Token', 'pos': 'PDT'}"
ta(I0
I4
S"{'text': 'of'}"
ta(I1
I2
S"{'nodeType': 'NounChunk'}"
ta(I1
I3
S"{'nodeType': 'Token', 'pos': 'PDT'}"
ta(I1
I4
S"{'text': 'of'}"
ta(I2
I4
S"{'text': 'of'}"
ta(I3
I2
S"{'nodeType': 'NounChunk'}"
ta(I3
I4
S"{'text': 'of'}"
ta(I4
I5
S"{'nodeType': 'VerbChunk', 'eventStatus': '1'}"
tasg23
I1
sg24
I1
sbaa(lp147
g26
atssS'unlikely'
p148
(dp149
g4
((lp150
(lp151
g7
ag85
aa(lp152
g26
atsg27
((lp153
(lp154
g30
aa(lp155
g26
atssS'impossible'
p156
(dp157
g4
((lp158
(lp159
g7
ag85
aa(lp160
g42
ag48
ag54
aa(lp161
g26
ag26
atsg27
((lp162
(lp163
g30
aa(lp164
g26
atssS'responsable'
p165
(dp166
g4
((lp167
(lp168
g42
ag48
ag54
aa(lp169
g135
ag141
a(iFSA
FSA
p170
(dp171
g9
S'for_NPev'
p172
sg11
(lp173
I4
asg13
Nsg14
I1
sg15
S"[_{_'_n_o_d_e_T_y_p_e_'_:_ _'_T_o_k_e_n_'_,_ _'_p_o_s_'_:_ _'_P_D_T_'_}_,_ _'_?_'_,_ _{_'_n_o_d_e_T_y_p_e_'_:_ _'_N_o_u_n_C_h_u_n_k_'_}_,_ _'_?_'_,_ _{_'_t_e_x_t_'_:_ _'_f_o_r_'_}_,_ _{_'_n_o_d_e_T_y_p_e_'_:_ _'_T_o_k_e_n_'_,_ _'_p_o_s_'_:_ _'_P_D_T_'_}_,_ _'_?_'_,_ _'_(_'_,_ _{_'_n_o_d_e_T_y_p_e_'_:_ _'_N_o_u_n_C_h_u_n_k_'_,_ _'_e_v_e_n_t_S_t_a_t_u_s_'_:_ _'_1_'_}_,_ _'_|_'_,_ _{_'_n_o_d_e_T_y_p_e_'_:_ _'_T_o_k_e_n_'_,_ _'_p_o_s_'_:_ _'_D_T_'_}_,_ _'_(_'_,_ _{_'_n_o_d_e_T_y_p_e_'_:_ _'_T_o_k_e_n_'_,_ _'_p_o_s_'_:_ _[_'_J_J_'_,_ _'_J_J_R_'_,_ _'_J_J_S_'_]_}_,_ _'_|_'_,_ _{_'_n_o_d_e_T_y_p_e_'_:_ _'_V_e_r_b_C_h_u_n_k_'_,_ _'_p_o_s_'_:_ _[_'_V_G_B_'_,_ _'_V_B_N_'_]_}_,_ _'_|_'_,_ _'_|_'_,_ _{_'_p_o_s_'_:_ _'_S_Y_M_'_}_,_ _'_)_'_,_ _'_*_'_,_ _{_'_n_o_d_e_T_y_p_e_'_:_ _'_T_o_k_e_n_'_,_ _'_p_o_s_'_:_ _'_C_D_'_}_,_ _'_*_'_,_ _{_'_n_o_d_e_T_y_p_e_'_:_ _'_N_o_u_n_C_h_u_n_k_'_}_,_ _'_)_'_]"
sg16
(lp174
I7
aI6
aI1
aI0
aI3
aI2
aI5
aI4
asg18
I0
sg19
(dsg20
I1
sg21
(lp175
(I0
I1
S"{'nodeType': 'NounChunk'}"
ta(I0
I2
S"{'nodeType': 'Token', 'pos': 'PDT'}"
ta(I0
I3
S"{'text': 'for'}"
ta(I1
I3
S"{'text': 'for'}"
ta(I2
I1
S"{'nodeType': 'NounChunk'}"
ta(I2
I3
S"{'text': 'for'}"
ta(I3
I4
S"{'nodeType': 'NounChunk', 'eventStatus': '1'}"
ta(I3
I5
S"{'nodeType': 'Token', 'pos': 'PDT'}"
ta(I3
I6
S"{'nodeType': 'Token', 'pos': 'DT'}"
ta(I5
I4
S"{'nodeType': 'NounChunk', 'eventStatus': '1'}"
ta(I5
I6
S"{'nodeType': 'Token', 'pos': 'DT'}"
ta(I6
I4
S"{'nodeType': 'NounChunk'}"
ta(I6
I6
S"{'nodeType': 'Token', 'pos': ['JJ', 'JJR', 'JJS']}"
ta(I6
I6
S"{'nodeType': 'VerbChunk', 'pos': ['VGB', 'VBN']}"
ta(I6
I6
S"{'pos': 'SYM'}"
ta(I6
I7
S"{'nodeType': 'Token', 'pos': 'CD'}"
ta(I7
I4
S"{'nodeType': 'NounChunk'}"
ta(I7
I7
S"{'nodeType': 'Token', 'pos': 'CD'}"
tasg23
I1
sg24
I1
sba(iFSA
FSA
p176
(dp177
g9
S'forING_clause'
p178
sg11
(lp179
I5
asg13
Nsg14
I1
sg15
S"[_{_'_n_o_d_e_T_y_p_e_'_:_ _'_T_o_k_e_n_'_,_ _'_p_o_s_'_:_ _'_I_N_'_}_,_ _'_?_'_,_ _{_'_n_o_d_e_T_y_p_e_'_:_ _'_T_o_k_e_n_'_,_ _'_p_o_s_'_:_ _'_P_D_T_'_}_,_ _'_?_'_,_ _{_'_n_o_d_e_T_y_p_e_'_:_ _'_N_o_u_n_C_h_u_n_k_'_}_,_ _'_?_'_,_ _{_'_t_e_x_t_'_:_ _'_f_o_r_'_}_,_ _{_'_n_o_d_e_T_y_p_e_'_:_ _'_V_e_r_b_C_h_u_n_k_'_,_ _'_e_v_e_n_t_S_t_a_t_u_s_'_:_ _'_1_'_}_]"
sg16
(lp180
I1
aI0
aI3
aI2
aI5
aI4
asg18
I0
sg19
(dsg20
I1
sg21
(lp181
(I0
I1
S"{'nodeType': 'Token', 'pos': 'IN'}"
ta(I0
I2
S"{'nodeType': 'NounChunk'}"
ta(I0
I3
S"{'nodeType': 'Token', 'pos': 'PDT'}"
ta(I0
I4
S"{'text': 'for'}"
ta(I1
I2
S"{'nodeType': 'NounChunk'}"
ta(I1
I3
S"{'nodeType': 'Token', 'pos': 'PDT'}"
ta(I1
I4
S"{'text': 'for'}"
ta(I2
I4
S"{'text': 'for'}"
ta(I3
I2
S"{'nodeType': 'NounChunk'}"
ta(I3
I4
S"{'text': 'for'}"
ta(I4
I5
S"{'nodeType': 'VerbChunk', 'eventStatus': '1'}"
tasg23
I1
sg24
I1
sbaa(lp182
g26
ag26
atssS'odd'
p183
(dp184
g4
((lp185
(lp186
g7
aa(lp187
g42
ag48
ag54
aa(lp188
g61
aa(lp189
g68
ag26
ag26
atsg27
((lp190
(lp191
g30
aa(lp192
g68
atssS'reluctant'
p193
(dp194
g4
((lp195
(lp196
g42
ag48
ag54
aa(lp197
g26
atssS'afraid'
p198
(dp199
g4
((lp200
(lp201
g42
ag48
ag54
aa(lp202
g7
aa(lp203
g135
aa(lp204
g141
aa(lp205
g26
ag26
ag68
ag26
atssS'probable'
p206
(dp207
g4
((lp208
(lp209
g7
ag85
aa(lp210
g26
atsg27
((lp211
(lp212
g30
aa(lp213
g26
atssS'eager'
p214
(dp215
g4
((lp216
(lp217
g42
ag48
ag54
aa(lp218
g26
atssS'unknown'
p219
(dp220
g4
((lp221
(lp222
g61
aa(lp223
g26
atssS'able'
p224
(dp225
g4
((lp226
(lp227
g42
ag48
ag54
aa(lp228
g26
atssS'alleged'
p229
(dp230
g4
((lp231
(lp232
(iFSA
FSA
p233
(dp234
g9
S'NP_event1'
p235
sg11
(lp236
I2
asg13
Nsg14
I1
sg15
S'[_{_\'_n_o_d_e_T_y_p_e_\'_:_ _\'_T_o_k_e_n_\'_,_ _\'_p_o_s_\'_:_ _\'_P_D_T_\'_}_,_ _\'_?_\'_,_ _{_\'_t_e_x_t_\'_:_ _[_\'_"_\'_,_ _\'_`_`_\'_,_ _"_\'_\'_"_]_}_,_ _\'_?_\'_,_ _\'_(_\'_,_ _{_\'_n_o_d_e_T_y_p_e_\'_:_ _\'_T_o_k_e_n_\'_,_ _\'_p_o_s_\'_:_ _[_\'_J_J_\'_,_ _\'_J_J_R_\'_,_ _\'_J_J_S_\'_,_ _\'_D_T_\'_,_ _\'_P_D_T_\'_,_ _\'_P_O_S_\'_,_ _\'_C_D_\'_,_ _\'_S_Y_M_\'_]_}_,_ _\'_*_\'_,_ _{_\'_n_o_d_e_T_y_p_e_\'_:_ _\'_N_o_u_n_C_h_u_n_k_\'_}_,_ _{_\'_t_e_x_t_\'_:_ _\'_o_f_\'_}_,_ _\'_)_\'_,_ _\'_*_\'_,_ _{_\'_n_o_d_e_T_y_p_e_\'_:_ _\'_N_o_u_n_C_h_u_n_k_\'_,_ _\'_e_v_e_n_t_S_t_a_t_u_s_\'_:_ _\'_1_\'_}_]'
sg16
(lp237
I3
aI0
aI2
aI5
aI1
aI4
asg18
I0
sg19
(dsg20
I1
sg21
(lp238
(I0
I1
S"{'nodeType': 'NounChunk'}"
ta(I0
I2
S"{'nodeType': 'NounChunk', 'eventStatus': '1'}"
ta(I0
I3
S'{\'text\': [\'"\', \'``\', "\'\'"]}'
ta(I0
I4
S"{'nodeType': 'Token', 'pos': 'PDT'}"
ta(I0
I5
S"{'nodeType': 'Token', 'pos': ['JJ', 'JJR', 'JJS', 'DT', 'PDT', 'POS', 'CD', 'SYM']}"
ta(I1
I3
S"{'text': 'of'}"
ta(I3
I1
S"{'nodeType': 'NounChunk'}"
ta(I3
I2
S"{'nodeType': 'NounChunk', 'eventStatus': '1'}"
ta(I3
I5
S"{'nodeType': 'Token', 'pos': ['JJ', 'JJR', 'JJS', 'DT', 'PDT', 'POS', 'CD', 'SYM']}"
ta(I4
I1
S"{'nodeType': 'NounChunk'}"
ta(I4
I2
S"{'nodeType': 'NounChunk', 'eventStatus': '1'}"
ta(I4
I3
S'{\'text\': [\'"\', \'``\', "\'\'"]}'
ta(I4
I5
S"{'nodeType': 'Token', 'pos': ['JJ', 'JJR', 'JJS', 'DT', 'PDT', 'POS', 'CD', 'SYM']}"
ta(I5
I1
S"{'nodeType': 'NounChunk'}"
ta(I5
I5
S"{'nodeType': 'Token', 'pos': ['JJ', 'JJR', 'JJS', 'DT', 'PDT', 'POS', 'CD', 'SYM']}"
tasg23
I1
sg24
I1
sba(iFSA
FSA
p239
(dp240
g9
S'NP_event2'
p241
sg11
(lp242
I5
asg13
Nsg14
I1
sg15
S'[_{_\'_n_o_d_e_T_y_p_e_\'_:_ _\'_T_o_k_e_n_\'_,_ _\'_p_o_s_\'_:_ _\'_P_D_T_\'_}_,_ _\'_?_\'_,_ _{_\'_t_e_x_t_\'_:_ _[_\'_"_\'_,_ _\'_`_`_\'_,_ _"_\'_\'_"_]_}_,_ _\'_?_\'_,_ _{_\'_n_o_d_e_T_y_p_e_\'_:_ _\'_T_o_k_e_n_\'_,_ _\'_p_o_s_\'_:_ _\'_D_T_\'_}_,_ _\'_?_\'_,_ _{_\'_t_e_x_t_\'_:_ _[_\'_"_\'_,_ _\'_`_`_\'_,_ _"_\'_\'_"_]_}_,_ _\'_?_\'_,_ _\'_(_\'_,_ _{_\'_n_o_d_e_T_y_p_e_\'_:_ _\'_T_o_k_e_n_\'_,_ _\'_p_o_s_\'_:_ _[_\'_J_J_\'_,_ _\'_J_J_R_\'_,_ _\'_J_J_S_\'_]_}_,_ _\'_|_\'_,_ _{_\'_n_o_d_e_T_y_p_e_\'_:_ _\'_V_e_r_b_C_h_u_n_k_\'_,_ _\'_p_o_s_\'_:_ _[_\'_V_G_B_\'_,_ _\'_V_B_N_\'_]_}_,_ _\'_|_\'_,_ _{_\'_p_o_s_\'_:_ _\'_S_Y_M_\'_}_,_ _\'_)_\'_,_ _\'_*_\'_,_ _{_\'_t_e_x_t_\'_:_ _[_\'_"_\'_,_ _\'_`_`_\'_,_ _"_\'_\'_"_]_}_,_ _\'_?_\'_,_ _{_\'_n_o_d_e_T_y_p_e_\'_:_ _\'_T_o_k_e_n_\'_,_ _\'_p_o_s_\'_:_ _\'_C_D_\'_}_,_ _\'_*_\'_,_ _{_\'_t_e_x_t_\'_:_ _[_\'_"_\'_,_ _\'_`_`_\'_,_ _"_\'_\'_"_]_}_,_ _\'_?_\'_,_ _{_\'_n_o_d_e_T_y_p_e_\'_:_ _\'_N_o_u_n_C_h_u_n_k_\'_,_ _\'_e_v_e_n_t_S_t_a_t_u_s_\'_:_ _\'_1_\'_}_]'
sg16
(lp243
I2
aI7
aI1
aI0
aI3
aI5
aI4
aI6
asg18
I0
sg19
(dsg20
I1
sg21
(lp244
(I0
I1
S'{\'text\': [\'"\', \'``\', "\'\'"]}'
ta(I0
I2
S"{'nodeType': 'Token', 'pos': 'CD'}"
ta(I0
I3
S"{'nodeType': 'Token', 'pos': 'DT'}"
ta(I0
I4
S"{'nodeType': 'Token', 'pos': ['JJ', 'JJR', 'JJS']}"
ta(I0
I4
S"{'nodeType': 'VerbChunk', 'pos': ['VGB', 'VBN']}"
ta(I0
I4
S"{'pos': 'SYM'}"
ta(I0
I5
S"{'nodeType': 'NounChunk', 'eventStatus': '1'}"
ta(I0
I6
S"{'nodeType': 'Token', 'pos': 'PDT'}"
ta(I1
I4
S"{'nodeType': 'Token', 'pos': ['JJ', 'JJR', 'JJS']}"
ta(I1
I4
S"{'nodeType': 'VerbChunk', 'pos': ['VGB', 'VBN']}"
ta(I1
I4
S"{'pos': 'SYM'}"
ta(I1
I4
S'{\'text\': [\'"\', \'``\', "\'\'"]}'
ta(I1
I2
S"{'nodeType': 'Token', 'pos': 'CD'}"
ta(I1
I3
S"{'nodeType': 'Token', 'pos': 'DT'}"
ta(I1
I5
S"{'nodeType': 'NounChunk', 'eventStatus': '1'}"
ta(I2
I5
S"{'nodeType': 'NounChunk', 'eventStatus': '1'}"
ta(I2
I7
S'{\'text\': [\'"\', \'``\', "\'\'"]}'
ta(I2
I2
S"{'nodeType': 'Token', 'pos': 'CD'}"
ta(I3
I4
S"{'nodeType': 'Token', 'pos': ['JJ', 'JJR', 'JJS']}"
ta(I3
I4
S"{'nodeType': 'VerbChunk', 'pos': ['VGB', 'VBN']}"
ta(I3
I4
S"{'pos': 'SYM'}"
ta(I3
I4
S'{\'text\': [\'"\', \'``\', "\'\'"]}'
ta(I3
I2
S"{'nodeType': 'Token', 'pos': 'CD'}"
ta(I3
I5
S"{'nodeType': 'NounChunk', 'eventStatus': '1'}"
ta(I4
I2
S"{'nodeType': 'Token', 'pos': 'CD'}"
ta(I4
I2
S'{\'text\': [\'"\', \'``\', "\'\'"]}'
ta(I4
I4
S"{'nodeType': 'Token', 'pos': ['JJ', 'JJR', 'JJS']}"
ta(I4
I4
S"{'nodeType': 'VerbChunk', 'pos': ['VGB', 'VBN']}"
ta(I4
I4
S"{'pos': 'SYM'}"
ta(I4
I5
S"{'nodeType': 'NounChunk', 'eventStatus': '1'}"
ta(I6
I1
S'{\'text\': [\'"\', \'``\', "\'\'"]}'
ta(I6
I2
S"{'nodeType': 'Token', 'pos': 'CD'}"
ta(I6
I3
S"{'nodeType': 'Token', 'pos': 'DT'}"
ta(I6
I4
S"{'nodeType': 'Token', 'pos': ['JJ', 'JJR', 'JJS']}"
ta(I6
I4
S"{'nodeType': 'VerbChunk', 'pos': ['VGB', 'VBN']}"
ta(I6
I4
S"{'pos': 'SYM'}"
ta(I6
I5
S"{'nodeType': 'NounChunk', 'eventStatus': '1'}"
ta(I7
I5
S"{'nodeType': 'NounChunk', 'eventStatus': '1'}"
tasg23
I1
sg24
I1
sbaa(lp245
g26
atssS'confident'
p246
(dp247
g4
((lp248
(lp249
g7
ag85
aa(lp250
(iFSA
FSA
p251
(dp252
g9
S'about_NPev'
p253
sg11
(lp254
I4
asg13
Nsg14
I1
sg15
S"[_{_'_n_o_d_e_T_y_p_e_'_:_ _'_T_o_k_e_n_'_,_ _'_p_o_s_'_:_ _'_P_D_T_'_}_,_ _'_?_'_,_ _{_'_n_o_d_e_T_y_p_e_'_:_ _'_N_o_u_n_C_h_u_n_k_'_}_,_ _'_?_'_,_ _{_'_t_e_x_t_'_:_ _'_a_b_o_u_t_'_,_ _'_n_o_d_e_T_y_p_e_'_:_ _'_T_o_k_e_n_'_}_,_ _{_'_n_o_d_e_T_y_p_e_'_:_ _'_T_o_k_e_n_'_,_ _'_p_o_s_'_:_ _'_P_D_T_'_}_,_ _'_?_'_,_ _'_(_'_,_ _{_'_n_o_d_e_T_y_p_e_'_:_ _'_N_o_u_n_C_h_u_n_k_'_,_ _'_e_v_e_n_t_S_t_a_t_u_s_'_:_ _'_1_'_}_,_ _'_|_'_,_ _{_'_n_o_d_e_T_y_p_e_'_:_ _'_T_o_k_e_n_'_,_ _'_p_o_s_'_:_ _'_D_T_'_}_,_ _'_(_'_,_ _{_'_n_o_d_e_T_y_p_e_'_:_ _'_T_o_k_e_n_'_,_ _'_p_o_s_'_:_ _[_'_J_J_'_,_ _'_J_J_R_'_,_ _'_J_J_S_'_]_}_,_ _'_|_'_,_ _{_'_n_o_d_e_T_y_p_e_'_:_ _'_V_e_r_b_C_h_u_n_k_'_,_ _'_p_o_s_'_:_ _[_'_V_G_B_'_,_ _'_V_B_N_'_]_}_,_ _'_|_'_,_ _'_|_'_,_ _{_'_p_o_s_'_:_ _'_S_Y_M_'_}_,_ _'_)_'_,_ _'_*_'_,_ _{_'_n_o_d_e_T_y_p_e_'_:_ _'_T_o_k_e_n_'_,_ _'_p_o_s_'_:_ _'_C_D_'_}_,_ _'_*_'_,_ _{_'_n_o_d_e_T_y_p_e_'_:_ _'_N_o_u_n_C_h_u_n_k_'_}_,_ _'_)_'_]"
sg16
(lp255
I7
aI6
aI1
aI0
aI3
aI2
aI5
aI4
asg18
I0
sg19
(dsg20
I1
sg21
(lp256
(I0
I1
S"{'nodeType': 'NounChunk'}"
ta(I0
I2
S"{'text': 'about', 'nodeType': 'Token'}"
ta(I0
I3
S"{'nodeType': 'Token', 'pos': 'PDT'}"
ta(I1
I2
S"{'text': 'about', 'nodeType': 'Token'}"
ta(I2
I4
S"{'nodeType': 'NounChunk', 'eventStatus': '1'}"
ta(I2
I5
S"{'nodeType': 'Token', 'pos': 'PDT'}"
ta(I2
I6
S"{'nodeType': 'Token', 'pos': 'DT'}"
ta(I3
I1
S"{'nodeType': 'NounChunk'}"
ta(I3
I2
S"{'text': 'about', 'nodeType': 'Token'}"
ta(I5
I4
S"{'nodeType': 'NounChunk', 'eventStatus': '1'}"
ta(I5
I6
S"{'nodeType': 'Token', 'pos': 'DT'}"
ta(I6
I4
S"{'nodeType': 'NounChunk'}"
ta(I6
I6
S"{'nodeType': 'Token', 'pos': ['JJ', 'JJR', 'JJS']}"
ta(I6
I6
S"{'nodeType': 'VerbChunk', 'pos': ['VGB', 'VBN']}"
ta(I6
I6
S"{'pos': 'SYM'}"
ta(I6
I7
S"{'nodeType': 'Token', 'pos': 'CD'}"
ta(I7
I4
S"{'nodeType': 'NounChunk'}"
ta(I7
I7
S"{'nodeType': 'Token', 'pos': 'CD'}"
tasg23
I1
sg24
I1
sba(iFSA
FSA
p257
(dp258
g9
S'aboutING_clause'
p259
sg11
(lp260
I5
asg13
Nsg14
I1
sg15
S"[_{_'_n_o_d_e_T_y_p_e_'_:_ _'_T_o_k_e_n_'_,_ _'_p_o_s_'_:_ _'_I_N_'_}_,_ _'_?_'_,_ _{_'_n_o_d_e_T_y_p_e_'_:_ _'_T_o_k_e_n_'_,_ _'_p_o_s_'_:_ _'_P_D_T_'_}_,_ _'_?_'_,_ _{_'_n_o_d_e_T_y_p_e_'_:_ _'_N_o_u_n_C_h_u_n_k_'_}_,_ _'_?_'_,_ _{_'_t_e_x_t_'_:_ _'_a_b_o_u_t_'_,_ _'_n_o_d_e_T_y_p_e_'_:_ _'_T_o_k_e_n_'_}_,_ _{_'_n_o_d_e_T_y_p_e_'_:_ _'_V_e_r_b_C_h_u_n_k_'_,_ _'_e_v_e_n_t_S_t_a_t_u_s_'_:_ _'_1_'_}_]"
sg16
(lp261
I1
aI0
aI3
aI2
aI5
aI4
asg18
I0
sg19
(dsg20
I1
sg21
(lp262
(I0
I1
S"{'nodeType': 'Token', 'pos': 'IN'}"
ta(I0
I2
S"{'nodeType': 'NounChunk'}"
ta(I0
I3
S"{'nodeType': 'Token', 'pos': 'PDT'}"
ta(I0
I4
S"{'text': 'about', 'nodeType': 'Token'}"
ta(I1
I2
S"{'nodeType': 'NounChunk'}"
ta(I1
I4
S"{'text': 'about', 'nodeType': 'Token'}"
ta(I1
I3
S"{'nodeType': 'Token', 'pos': 'PDT'}"
ta(I2
I4
S"{'text': 'about', 'nodeType': 'Token'}"
ta(I3
I2
S"{'nodeType': 'NounChunk'}"
ta(I3
I4
S"{'text': 'about', 'nodeType': 'Token'}"
ta(I4
I5
S"{'nodeType': 'VerbChunk', 'eventStatus': '1'}"
tasg23
I1
sg24
I1
sbaa(lp263
g26
ag26
atssS'strange'
p264
(dp265
g4
((lp266
(lp267
g7
aa(lp268
g42
ag48
ag54
aa(lp269
g61
aa(lp270
g68
ag26
ag26
atsg27
((lp271
(lp272
g30
aa(lp273
g68
atssS'tragic'
p274
(dp275
g4
((lp276
(lp277
g7
aa(lp278
g42
ag48
ag54
aa(lp279
g61
aa(lp280
g68
ag26
ag26
atssS'unfortunate'
p281
(dp282
g4
((lp283
(lp284
g7
ag85
aa(lp285
g42
ag48
ag54
aa(lp286
g68
ag68
atssS'sorry'
p287
(dp288
g4
((lp289
(lp290
g7
aa(lp291
g251
ag257
aa(lp292
g68
ag68
atssS'possible'
p293
(dp294
g4
((lp295
(lp296
g7
ag85
aa(lp297
g42
ag48
ag54
aa(lp298
g26
ag26
atsg27
((lp299
(lp300
g30
aa(lp301
g26
atssS'sure'
p302
(dp303
g4
((lp304
(lp305
g7
aa(lp306
g251
ag257
aa(lp307
g42
ag48
aa(lp308
g68
ag26
ag26
atssS'lucky'
p309
(dp310
g4
((lp311
(lp312
g42
ag48
ag54
aa(lp313
g7
ag85
aa(lp314
g68
atssS'aware'
p315
(dp316
g4
((lp317
(lp318
g7
aa(lp319
g135
aa(lp320
g26
ag68
atssS'willing'
p321
(dp322
g4
((lp323
(lp324
g42
ag48
ag54
aa(lp325
g26
atssS'important'
p326
(dp327
g4
((lp328
(lp329
g7
aa(lp330
g42
ag48
ag54
aa(lp331
g68
ag26
atsg27
((lp332
(lp333
g30
aa(lp334
g68
atssS'significant'
p335
(dp336
g4
((lp337
(lp338
g7
aa(lp339
g68
ag26
atsg27
((lp340
(lp341
g30
aa(lp342
g68
atssS'exciting'
p343
(dp344
g4
((lp345
(lp346
g7
aa(lp347
g42
ag48
ag54
aa(lp348
g61
aa(lp349
g68
ag26
ag26
atsg27
((lp350
(lp351
g30
aa(lp352
g68
atssS'true'
p353
(dp354
g4
((lp355
(lp356
g7
ag85
aa(lp357
g68
atsg27
((lp358
(lp359
g30
aa(lp360
g68
atssS'conceivable'
p361
(dp362
g4
((lp363
(lp364
g7
ag85
aa(lp365
g26
atsg27
((lp366
(lp367
g30
aa(lp368
g26
atssS'imminent'
p369
(dp370
g27
((lp371
(lp372
g30
aa(lp373
g26
atssS'inconceivable'
p374
(dp375
g4
((lp376
(lp377
g7
ag85
aa(lp378
g26
atsg27
((lp379
(lp380
g30
aa(lp381
g26
atssS'evident'
p382
(dp383
g4
((lp384
(lp385
g7
ag85
aa(lp386
g68
atsg27
((lp387
(lp388
g30
aa(lp389
g68
atssS'urgent'
p390
(dp391
g4
((lp392
(lp393
g7
ag85
aa(lp394
g26
atsg27
((lp395
(lp396
g30
aa(lp397
g26
atssS'clear'
p398
(dp399
g4
((lp400
(lp401
g7
ag85
aa(lp402
g68
atsg27
((lp403
(lp404
g30
aa(lp405
g68
atssS'proud'
p406
(dp407
g4
((lp408
(lp409
g141
ag135
aa(lp410
(iFSA
FSA
p411
(dp412
g9
S'toClause1_PERFECTIVE'
p413
sg11
(lp414
I3
asg13
Nsg14
I1
sg15
S"[_{_'_p_o_s_'_:_ _[_'_R_B_'_,_ _'_R_B_R_'_,_ _'_R_B_S_'_,_ _'_R_P_'_,_ _'_J_J_R_'_]_}_,_ _'_?_'_,_ _'_(_'_,_ _{_'_t_e_n_s_e_'_:_ _'_I_N_F_I_N_I_T_I_V_E_'_,_ _'_e_v_e_n_t_S_t_a_t_u_s_'_:_ _'_1_'_,_ _'_a_s_p_e_c_t_'_:_ _'_P_E_R_F_E_C_T_I_V_E_'_}_,_ _'_|_'_,_ _{_'_t_e_x_t_'_:_ _'_t_o_'_,_ _'_p_o_s_'_:_ _'_T_O_'_}_,_ _{_'_p_o_s_'_:_ _'_U_H_'_}_,_ _'_?_'_,_ _{_'_e_v_e_n_t_S_t_a_t_u_s_'_:_ _'_1_'_,_ _'_a_s_p_e_c_t_'_:_ _'_P_E_R_F_E_C_T_I_V_E_'_}_,_ _'_)_'_]"
sg16
(lp415
I0
aI4
aI2
aI3
aI1
asg18
I0
sg19
(dsg20
I1
sg21
(lp416
(I0
I1
S"{'text': 'to', 'pos': 'TO'}"
ta(I0
I2
S"{'pos': ['RB', 'RBR', 'RBS', 'RP', 'JJR']}"
ta(I0
I3
S"{'tense': 'INFINITIVE', 'eventStatus': '1', 'aspect': 'PERFECTIVE'}"
ta(I1
I3
S"{'eventStatus': '1', 'aspect': 'PERFECTIVE'}"
ta(I1
I4
S"{'pos': 'UH'}"
ta(I2
I1
S"{'text': 'to', 'pos': 'TO'}"
ta(I2
I3
S"{'tense': 'INFINITIVE', 'eventStatus': '1', 'aspect': 'PERFECTIVE'}"
ta(I4
I3
S"{'eventStatus': '1', 'aspect': 'PERFECTIVE'}"
tasg23
I1
sg24
I1
sba(iFSA
FSA
p417
(dp418
g9
S'toClause3_PERFECTIVE'
p419
sg11
(lp420
I7
asg13
Nsg14
I1
sg15
S"[_'_(_'_,_ _{_'_n_o_d_e_T_y_p_e_'_:_ _'_T_o_k_e_n_'_,_ _'_p_o_s_'_:_ _'_P_D_T_'_}_,_ _'_|_'_,_ _{_'_n_o_d_e_T_y_p_e_'_:_ _'_T_o_k_e_n_'_,_ _'_p_o_s_'_:_ _'_D_T_'_}_,_ _{_'_n_o_d_e_T_y_p_e_'_:_ _'_T_o_k_e_n_'_,_ _'_p_o_s_'_:_ _'_I_N_'_}_,_ _'_)_'_,_ _'_?_'_,_ _'_(_'_,_ _{_'_n_o_d_e_T_y_p_e_'_:_ _'_N_o_u_n_C_h_u_n_k_'_}_,_ _'_(_'_,_ _{_'_n_o_d_e_T_y_p_e_'_:_ _'_T_o_k_e_n_'_,_ _'_p_o_s_'_:_ _'_I_N_'_}_,_ _'_|_'_,_ _{_'_t_e_x_t_'_:_ _[_'_a_n_d_'_,_ _'_o_r_'_]_,_ _'_n_o_d_e_T_y_p_e_'_:_ _'_T_o_k_e_n_'_,_ _'_p_o_s_'_:_ _'_C_C_'_}_,_ _'_)_'_,_ _{_'_n_o_d_e_T_y_p_e_'_:_ _'_N_o_u_n_C_h_u_n_k_'_}_,_ _'_(_'_,_ _{_'_n_o_d_e_T_y_p_e_'_:_ _'_T_o_k_e_n_'_,_ _'_p_o_s_'_:_ _'_I_N_'_}_,_ _{_'_n_o_d_e_T_y_p_e_'_:_ _'_N_o_u_n_C_h_u_n_k_'_}_,_ _'_)_'_,_ _'_?_'_,_ _'_|_'_,_ _'_(_'_,_ _{_'_n_o_d_e_T_y_p_e_'_:_ _'_T_o_k_e_n_'_,_ _'_p_o_s_'_:_ _[_'_P_P_'_,_ _'_P_P_$_'_,_ _'_P_R_P_$_'_,_ _'_P_R_P_'_]_}_,_ _'_|_'_,_ _{_'_n_o_d_e_T_y_p_e_'_:_ _'_N_o_u_n_C_h_u_n_k_'_}_,_ _'_)_'_,_ _'_|_'_,_ _{_'_t_e_x_t_'_:_ _[_'_t_h_i_s_'_,_ _'_t_h_a_t_'_,_ _'_t_h_e_s_e_'_,_ _'_t_h_o_s_e_'_]_,_ _'_n_o_d_e_T_y_p_e_'_:_ _'_T_o_k_e_n_'_}_,_ _'_|_'_,_ _{_'_n_o_d_e_T_y_p_e_'_:_ _'_T_o_k_e_n_'_,_ _'_p_o_s_'_:_ _'_D_T_'_}_,_ _'_(_'_,_ _{_'_n_o_d_e_T_y_p_e_'_:_ _'_T_o_k_e_n_'_,_ _'_p_o_s_'_:_ _[_'_J_J_'_,_ _'_J_J_R_'_,_ _'_J_J_S_'_]_}_,_ _'_|_'_,_ _{_'_p_o_s_'_:_ _'_S_Y_M_'_}_,_ _'_)_'_,_ _'_*_'_,_ _{_'_n_o_d_e_T_y_p_e_'_:_ _'_T_o_k_e_n_'_,_ _'_p_o_s_'_:_ _'_C_D_'_}_,_ _'_*_'_,_ _'_(_'_,_ _{_'_n_o_d_e_T_y_p_e_'_:_ _'_N_o_u_n_C_h_u_n_k_'_}_,_ _'_|_'_,_ _{_'_n_o_d_e_T_y_p_e_'_:_ _'_N_o_u_n_C_h_u_n_k_'_}_,_ _'_(_'_,_ _{_'_n_o_d_e_T_y_p_e_'_:_ _'_T_o_k_e_n_'_,_ _'_p_o_s_'_:_ _'_I_N_'_}_,_ _'_|_'_,_ _{_'_t_e_x_t_'_:_ _[_'_a_n_d_'_,_ _'_o_r_'_]_,_ _'_n_o_d_e_T_y_p_e_'_:_ _'_T_o_k_e_n_'_,_ _'_p_o_s_'_:_ _'_C_C_'_}_,_ _'_)_'_,_ _{_'_n_o_d_e_T_y_p_e_'_:_ _'_N_o_u_n_C_h_u_n_k_'_}_,_ _'_)_'_,_ _'_)_'_,_ _'_(_'_,_ _{_'_t_e_n_s_e_'_:_ _'_I_N_F_I_N_I_T_I_V_E_'_,_ _'_e_v_e_n_t_S_t_a_t_u_s_'_:_ _'_1_'_,_ _'_a_s_p_e_c_t_'_:_ _'_P_E_R_F_E_C_T_I_V_E_'_}_,_ _'_|_'_,_ _{_'_t_e_x_t_'_:_ _'_t_o_'_,_ _'_p_o_s_'_:_ _'_T_O_'_}_,_ _{_'_p_o_s_'_:_ _'_U_H_'_}_,_ _'_?_'_,_ _{_'_e_v_e_n_t_S_t_a_t_u_s_'_:_ _'_1_'_,_ _'_a_s_p_e_c_t_'_:_ _'_P_E_R_F_E_C_T_I_V_E_'_}_,_ _'_)_'_]"
sg16
(lp421
I1
aI8
aI7
aI13
aI0
aI2
aI11
aI4
aI12
aI9
aI3
aI10
aI5
aI6
asg18
I0
sg19
(dsg20
I1
sg21
(lp422
(I0
I1
S"{'nodeType': 'NounChunk'}"
ta(I0
I2
S"{'nodeType': 'Token', 'pos': ['PP', 'PP$', 'PRP$', 'PRP']}"
ta(I0
I2
S"{'text': ['this', 'that', 'these', 'those'], 'nodeType': 'Token'}"
ta(I0
I3
S"{'nodeType': 'Token', 'pos': 'PDT'}"
ta(I0
I4
S"{'nodeType': 'Token', 'pos': 'DT'}"
ta(I1
I5
S"{'nodeType': 'Token', 'pos': 'IN'}"
ta(I1
I5
S"{'text': ['and', 'or'], 'nodeType': 'Token', 'pos': 'CC'}"
ta(I1
I6
S"{'text': 'to', 'pos': 'TO'}"
ta(I1
I7
S"{'tense': 'INFINITIVE', 'eventStatus': '1', 'aspect': 'PERFECTIVE'}"
ta(I2
I6
S"{'text': 'to', 'pos': 'TO'}"
ta(I2
I7
S"{'tense': 'INFINITIVE', 'eventStatus': '1', 'aspect': 'PERFECTIVE'}"
ta(I3
I1
S"{'nodeType': 'NounChunk'}"
ta(I3
I2
S"{'nodeType': 'Token', 'pos': ['PP', 'PP$', 'PRP$', 'PRP']}"
ta(I3
I2
S"{'text': ['this', 'that', 'these', 'those'], 'nodeType': 'Token'}"
ta(I3
I8
S"{'nodeType': 'Token', 'pos': 'DT'}"
ta(I4
I9
S"{'nodeType': 'NounChunk'}"
ta(I4
I3
S"{'nodeType': 'Token', 'pos': 'IN'}"
ta(I4
I8
S"{'nodeType': 'Token', 'pos': ['JJ', 'JJR', 'JJS']}"
ta(I4
I8
S"{'pos': 'SYM'}"
ta(I4
I10
S"{'nodeType': 'Token', 'pos': 'CD'}"
ta(I5
I11
S"{'nodeType': 'NounChunk'}"
ta(I6
I7
S"{'eventStatus': '1', 'aspect': 'PERFECTIVE'}"
ta(I6
I12
S"{'pos': 'UH'}"
ta(I8
I9
S"{'nodeType': 'NounChunk'}"
ta(I8
I8
S"{'nodeType': 'Token', 'pos': ['JJ', 'JJR', 'JJS']}"
ta(I8
I8
S"{'pos': 'SYM'}"
ta(I8
I10
S"{'nodeType': 'Token', 'pos': 'CD'}"
ta(I9
I13
S"{'nodeType': 'Token', 'pos': 'IN'}"
ta(I9
I13
S"{'text': ['and', 'or'], 'nodeType': 'Token', 'pos': 'CC'}"
ta(I9
I6
S"{'text': 'to', 'pos': 'TO'}"
ta(I9
I7
S"{'tense': 'INFINITIVE', 'eventStatus': '1', 'aspect': 'PERFECTIVE'}"
ta(I10
I9
S"{'nodeType': 'NounChunk'}"
ta(I10
I10
S"{'nodeType': 'Token', 'pos': 'CD'}"
ta(I11
I13
S"{'nodeType': 'Token', 'pos': 'IN'}"
ta(I11
I6
S"{'text': 'to', 'pos': 'TO'}"
ta(I11
I7
S"{'tense': 'INFINITIVE', 'eventStatus': '1', 'aspect': 'PERFECTIVE'}"
ta(I12
I7
S"{'eventStatus': '1', 'aspect': 'PERFECTIVE'}"
ta(I13
I2
S"{'nodeType': 'NounChunk'}"
tasg23
I1
sg24
I1
sba(iFSA
FSA
p423
(dp424
g9
S'toClause5_PERFECTIVE'
p425
sg11
(lp426
I8
asg13
Nsg14
I1
sg15
S"[_{_'_n_o_d_e_T_y_p_e_'_:_ _'_T_o_k_e_n_'_,_ _'_p_o_s_'_:_ _'_I_N_'_}_,_ _{_'_n_o_d_e_T_y_p_e_'_:_ _'_T_o_k_e_n_'_,_ _'_p_o_s_'_:_ _'_P_D_T_'_}_,_ _'_?_'_,_ _{_'_n_o_d_e_T_y_p_e_'_:_ _'_N_o_u_n_C_h_u_n_k_'_}_,_ _{_'_n_o_d_e_T_y_p_e_'_:_ _'_T_o_k_e_n_'_,_ _'_p_o_s_'_:_ _'_I_N_'_}_,_ _'_?_'_,_ _{_'_n_o_d_e_T_y_p_e_'_:_ _'_T_o_k_e_n_'_,_ _'_p_o_s_'_:_ _'_P_D_T_'_}_,_ _'_?_'_,_ _{_'_n_o_d_e_T_y_p_e_'_:_ _'_N_o_u_n_C_h_u_n_k_'_}_,_ _'_?_'_,_ _'_(_'_,_ _{_'_t_e_n_s_e_'_:_ _'_I_N_F_I_N_I_T_I_V_E_'_,_ _'_e_v_e_n_t_S_t_a_t_u_s_'_:_ _'_1_'_,_ _'_a_s_p_e_c_t_'_:_ _'_P_E_R_F_E_C_T_I_V_E_'_}_,_ _'_|_'_,_ _{_'_t_e_x_t_'_:_ _'_t_o_'_,_ _'_p_o_s_'_:_ _'_T_O_'_}_,_ _{_'_p_o_s_'_:_ _'_U_H_'_}_,_ _'_?_'_,_ _{_'_e_v_e_n_t_S_t_a_t_u_s_'_:_ _'_1_'_,_ _'_a_s_p_e_c_t_'_:_ _'_P_E_R_F_E_C_T_I_V_E_'_}_,_ _'_)_'_]"
sg16
(lp427
I8
aI9
aI1
aI0
aI3
aI2
aI5
aI4
aI7
aI6
asg18
I0
sg19
(dsg20
I1
sg21
(lp428
(I0
I1
S"{'nodeType': 'Token', 'pos': 'IN'}"
ta(I1
I2
S"{'nodeType': 'NounChunk'}"
ta(I1
I3
S"{'nodeType': 'Token', 'pos': 'PDT'}"
ta(I2
I4
S"{'nodeType': 'NounChunk'}"
ta(I2
I5
S"{'text': 'to', 'pos': 'TO'}"
ta(I2
I6
S"{'nodeType': 'Token', 'pos': 'PDT'}"
ta(I2
I7
S"{'nodeType': 'Token', 'pos': 'IN'}"
ta(I2
I8
S"{'tense': 'INFINITIVE', 'eventStatus': '1', 'aspect': 'PERFECTIVE'}"
ta(I3
I2
S"{'nodeType': 'NounChunk'}"
ta(I4
I5
S"{'text': 'to', 'pos': 'TO'}"
ta(I4
I8
S"{'tense': 'INFINITIVE', 'eventStatus': '1', 'aspect': 'PERFECTIVE'}"
ta(I5
I8
S"{'eventStatus': '1', 'aspect': 'PERFECTIVE'}"
ta(I5
I9
S"{'pos': 'UH'}"
ta(I6
I4
S"{'nodeType': 'NounChunk'}"
ta(I6
I5
S"{'text': 'to', 'pos': 'TO'}"
ta(I6
I8
S"{'tense': 'INFINITIVE', 'eventStatus': '1', 'aspect': 'PERFECTIVE'}"
ta(I7
I4
S"{'nodeType': 'NounChunk'}"
ta(I7
I5
S"{'text': 'to', 'pos': 'TO'}"
ta(I7
I6
S"{'nodeType': 'Token', 'pos': 'PDT'}"
ta(I7
I8
S"{'tense': 'INFINITIVE', 'eventStatus': '1', 'aspect': 'PERFECTIVE'}"
ta(I9
I8
S"{'eventStatus': '1', 'aspect': 'PERFECTIVE'}"
tasg23
I1
sg24
I1
sbaa(lp429
g42
ag48
ag54
aa(lp430
g68
ag68
ag26
atssS'anxious'
p431
(dp432
g4
((lp433
(lp434
g7
ag85
aa(lp435
g42
ag48
ag54
aa(lp436
g251
aa(lp437
g26
ag26
ag68
atssS'obvious'
p438
(dp439
g4
((lp440
(lp441
g7
ag85
aa(lp442
g68
atsg27
((lp443
(lp444
g30
aa(lp445
g68
atssS'due'
p446
(dp447
g4
((lp448
(lp449
g42
ag48
ag54
aa(lp450
g26
atssS'interesting'
p451
(dp452
g4
((lp453
(lp454
g7
aa(lp455
g42
ag48
ag54
aa(lp456
g61
aa(lp457
g68
ag26
ag26
atsg27
((lp458
(lp459
g30
aa(lp460
g68
atss.