(dp1
S'entering'
p2
(dp3
S'forward'
p4
((lp5
(lp6
(iFSA
FSA
p7
(dp8
S'fsaname'
p9
S'NP_event1'
p10
sS'finalStates'
p11
(lp12
I2
asS'alphabet'
p13
NsS'_isTrimmed'
p14
I1
sS'label'
p15
S'[_{_\'_n_o_d_e_T_y_p_e_\'_:_ _\'_T_o_k_e_n_\'_,_ _\'_p_o_s_\'_:_ _\'_P_D_T_\'_}_,_ _\'_?_\'_,_ _{_\'_t_e_x_t_\'_:_ _[_\'_"_\'_,_ _\'_`_`_\'_,_ _"_\'_\'_"_]_}_,_ _\'_?_\'_,_ _\'_(_\'_,_ _{_\'_n_o_d_e_T_y_p_e_\'_:_ _\'_T_o_k_e_n_\'_,_ _\'_p_o_s_\'_:_ _[_\'_J_J_\'_,_ _\'_J_J_R_\'_,_ _\'_J_J_S_\'_,_ _\'_D_T_\'_,_ _\'_P_D_T_\'_,_ _\'_P_O_S_\'_,_ _\'_C_D_\'_,_ _\'_S_Y_M_\'_]_}_,_ _\'_*_\'_,_ _{_\'_n_o_d_e_T_y_p_e_\'_:_ _\'_N_o_u_n_C_h_u_n_k_\'_}_,_ _{_\'_t_e_x_t_\'_:_ _\'_o_f_\'_}_,_ _\'_)_\'_,_ _\'_*_\'_,_ _{_\'_n_o_d_e_T_y_p_e_\'_:_ _\'_N_o_u_n_C_h_u_n_k_\'_,_ _\'_e_v_e_n_t_S_t_a_t_u_s_\'_:_ _\'_1_\'_}_]'
sS'states'
p16
(lp17
I3
aI0
aI2
aI5
aI1
aI4
asS'initialState'
p18
I0
sS'_arcMetadata'
p19
(dsS'_isSorted'
p20
I1
sS'transitions'
p21
(lp22
(I0
I1
S"{'nodeType': 'NounChunk'}"
ta(I0
I2
S"{'nodeType': 'NounChunk', 'eventStatus': '1'}"
ta(I0
I3
S'{\'text\': [\'"\', \'``\', "\'\'"]}'
ta(I0
I4
S"{'nodeType': 'Token', 'pos': 'PDT'}"
ta(I0
I5
S"{'nodeType': 'Token', 'pos': ['JJ', 'JJR', 'JJS', 'DT', 'PDT', 'POS', 'CD', 'SYM']}"
ta(I1
I3
S"{'text': 'of'}"
ta(I3
I1
S"{'nodeType': 'NounChunk'}"
ta(I3
I2
S"{'nodeType': 'NounChunk', 'eventStatus': '1'}"
ta(I3
I5
S"{'nodeType': 'Token', 'pos': ['JJ', 'JJR', 'JJS', 'DT', 'PDT', 'POS', 'CD', 'SYM']}"
ta(I4
I1
S"{'nodeType': 'NounChunk'}"
ta(I4
I2
S"{'nodeType': 'NounChunk', 'eventStatus': '1'}"
ta(I4
I3
S'{\'text\': [\'"\', \'``\', "\'\'"]}'
ta(I4
I5
S"{'nodeType': 'Token', 'pos': ['JJ', 'JJR', 'JJS', 'DT', 'PDT', 'POS', 'CD', 'SYM']}"
ta(I5
I1
S"{'nodeType': 'NounChunk'}"
ta(I5
I5
S"{'nodeType': 'Token', 'pos': ['JJ', 'JJR', 'JJS', 'DT', 'PDT', 'POS', 'CD', 'SYM']}"
tasS'_isDeterminized'
p23
I1
sS'_isMinimized'
p24
I1
sba(iFSA
FSA
p25
(dp26
g9
S'NP_event2'
p27
sg11
(lp28
I5
asg13
Nsg14
I1
sg15
S'[_{_\'_n_o_d_e_T_y_p_e_\'_:_ _\'_T_o_k_e_n_\'_,_ _\'_p_o_s_\'_:_ _\'_P_D_T_\'_}_,_ _\'_?_\'_,_ _{_\'_t_e_x_t_\'_:_ _[_\'_"_\'_,_ _\'_`_`_\'_,_ _"_\'_\'_"_]_}_,_ _\'_?_\'_,_ _{_\'_n_o_d_e_T_y_p_e_\'_:_ _\'_T_o_k_e_n_\'_,_ _\'_p_o_s_\'_:_ _\'_D_T_\'_}_,_ _\'_?_\'_,_ _{_\'_t_e_x_t_\'_:_ _[_\'_"_\'_,_ _\'_`_`_\'_,_ _"_\'_\'_"_]_}_,_ _\'_?_\'_,_ _\'_(_\'_,_ _{_\'_n_o_d_e_T_y_p_e_\'_:_ _\'_T_o_k_e_n_\'_,_ _\'_p_o_s_\'_:_ _[_\'_J_J_\'_,_ _\'_J_J_R_\'_,_ _\'_J_J_S_\'_]_}_,_ _\'_|_\'_,_ _{_\'_n_o_d_e_T_y_p_e_\'_:_ _\'_V_e_r_b_C_h_u_n_k_\'_,_ _\'_p_o_s_\'_:_ _[_\'_V_G_B_\'_,_ _\'_V_B_N_\'_]_}_,_ _\'_|_\'_,_ _{_\'_p_o_s_\'_:_ _\'_S_Y_M_\'_}_,_ _\'_)_\'_,_ _\'_*_\'_,_ _{_\'_t_e_x_t_\'_:_ _[_\'_"_\'_,_ _\'_`_`_\'_,_ _"_\'_\'_"_]_}_,_ _\'_?_\'_,_ _{_\'_n_o_d_e_T_y_p_e_\'_:_ _\'_T_o_k_e_n_\'_,_ _\'_p_o_s_\'_:_ _\'_C_D_\'_}_,_ _\'_*_\'_,_ _{_\'_t_e_x_t_\'_:_ _[_\'_"_\'_,_ _\'_`_`_\'_,_ _"_\'_\'_"_]_}_,_ _\'_?_\'_,_ _{_\'_n_o_d_e_T_y_p_e_\'_:_ _\'_N_o_u_n_C_h_u_n_k_\'_,_ _\'_e_v_e_n_t_S_t_a_t_u_s_\'_:_ _\'_1_\'_}_]'
sg16
(lp29
I2
aI7
aI1
aI0
aI3
aI5
aI4
aI6
asg18
I0
sg19
(dsg20
I1
sg21
(lp30
(I0
I1
S'{\'text\': [\'"\', \'``\', "\'\'"]}'
ta(I0
I2
S"{'nodeType': 'Token', 'pos': 'CD'}"
ta(I0
I3
S"{'nodeType': 'Token', 'pos': 'DT'}"
ta(I0
I4
S"{'nodeType': 'Token', 'pos': ['JJ', 'JJR', 'JJS']}"
ta(I0
I4
S"{'nodeType': 'VerbChunk', 'pos': ['VGB', 'VBN']}"
ta(I0
I4
S"{'pos': 'SYM'}"
ta(I0
I5
S"{'nodeType': 'NounChunk', 'eventStatus': '1'}"
ta(I0
I6
S"{'nodeType': 'Token', 'pos': 'PDT'}"
ta(I1
I4
S"{'nodeType': 'Token', 'pos': ['JJ', 'JJR', 'JJS']}"
ta(I1
I4
S"{'nodeType': 'VerbChunk', 'pos': ['VGB', 'VBN']}"
ta(I1
I4
S"{'pos': 'SYM'}"
ta(I1
I4
S'{\'text\': [\'"\', \'``\', "\'\'"]}'
ta(I1
I2
S"{'nodeType': 'Token', 'pos': 'CD'}"
ta(I1
I3
S"{'nodeType': 'Token', 'pos': 'DT'}"
ta(I1
I5
S"{'nodeType': 'NounChunk', 'eventStatus': '1'}"
ta(I2
I5
S"{'nodeType': 'NounChunk', 'eventStatus': '1'}"
ta(I2
I7
S'{\'text\': [\'"\', \'``\', "\'\'"]}'
ta(I2
I2
S"{'nodeType': 'Token', 'pos': 'CD'}"
ta(I3
I4
S"{'nodeType': 'Token', 'pos': ['JJ', 'JJR', 'JJS']}"
ta(I3
I4
S"{'nodeType': 'VerbChunk', 'pos': ['VGB', 'VBN']}"
ta(I3
I4
S"{'pos': 'SYM'}"
ta(I3
I4
S'{\'text\': [\'"\', \'``\', "\'\'"]}'
ta(I3
I2
S"{'nodeType': 'Token', 'pos': 'CD'}"
ta(I3
I5
S"{'nodeType': 'NounChunk', 'eventStatus': '1'}"
ta(I4
I2
S"{'nodeType': 'Token', 'pos': 'CD'}"
ta(I4
I2
S'{\'text\': [\'"\', \'``\', "\'\'"]}'
ta(I4
I4
S"{'nodeType': 'Token', 'pos': ['JJ', 'JJR', 'JJS']}"
ta(I4
I4
S"{'nodeType': 'VerbChunk', 'pos': ['VGB', 'VBN']}"
ta(I4
I4
S"{'pos': 'SYM'}"
ta(I4
I5
S"{'nodeType': 'NounChunk', 'eventStatus': '1'}"
ta(I6
I1
S'{\'text\': [\'"\', \'``\', "\'\'"]}'
ta(I6
I2
S"{'nodeType': 'Token', 'pos': 'CD'}"
ta(I6
I3
S"{'nodeType': 'Token', 'pos': 'DT'}"
ta(I6
I4
S"{'nodeType': 'Token', 'pos': ['JJ', 'JJR', 'JJS']}"
ta(I6
I4
S"{'nodeType': 'VerbChunk', 'pos': ['VGB', 'VBN']}"
ta(I6
I4
S"{'pos': 'SYM'}"
ta(I6
I5
S"{'nodeType': 'NounChunk', 'eventStatus': '1'}"
ta(I7
I5
S"{'nodeType': 'NounChunk', 'eventStatus': '1'}"
tasg23
I1
sg24
I1
sbaa(lp31
S'INITIATES'
p32
atssS'enter'
p33
(dp34
g4
((lp35
(lp36
g7
ag25
aa(lp37
g32
atssS'ends'
p38
(dp39
g4
((lp40
(lp41
g7
ag25
aa(lp42
S'TERMINATES'
p43
atsS'backwards'
p44
((lp45
(lp46
(iFSA
FSA
p47
(dp48
g9
S'NP_eventAsSubj1'
p49
sg11
(lp50
I2
asg13
Nsg14
I1
sg15
S"[_{_'_n_o_d_e_T_y_p_e_'_:_ _'_V_e_r_b_C_h_u_n_k_'_,_ _'_e_v_e_n_t_S_t_a_t_u_s_'_:_ _'_1_'_}_,_ _{_'_n_o_d_e_T_y_p_e_'_:_ _'_T_o_k_e_n_'_,_ _'_p_o_s_'_:_ _[_'_J_J_'_,_ _'_R_B_'_]_}_,_ _'_?_'_,_ _{_'_n_o_d_e_T_y_p_e_'_:_ _'_N_o_u_n_C_h_u_n_k_'_,_ _'_e_v_e_n_t_S_t_a_t_u_s_'_:_ _'_1_'_}_]"
sg16
(lp51
I1
aI0
aI3
aI2
asg18
I0
sg19
(dsg20
I1
sg21
(lp52
(I0
I1
S"{'nodeType': 'VerbChunk', 'eventStatus': '1'}"
ta(I1
I2
S"{'nodeType': 'NounChunk', 'eventStatus': '1'}"
ta(I1
I3
S"{'nodeType': 'Token', 'pos': ['JJ', 'RB']}"
ta(I3
I2
S"{'nodeType': 'NounChunk', 'eventStatus': '1'}"
tasg23
I1
sg24
I1
sba(iFSA
FSA
p53
(dp54
g9
S'NP_eventAsSubj2'
p55
sg11
(lp56
I2
asg13
Nsg14
I1
sg15
S"[_{_'_n_o_d_e_T_y_p_e_'_:_ _'_V_e_r_b_C_h_u_n_k_'_,_ _'_e_v_e_n_t_S_t_a_t_u_s_'_:_ _'_1_'_}_,_ _{_'_n_o_d_e_T_y_p_e_'_:_ _'_T_o_k_e_n_'_,_ _'_p_o_s_'_:_ _[_'_J_J_'_,_ _'_R_B_'_]_}_,_ _'_?_'_,_ _{_'_n_o_d_e_T_y_p_e_'_:_ _'_V_e_r_b_C_h_u_n_k_'_,_ _'_e_v_e_n_t_S_t_a_t_u_s_'_:_ _'_1_'_,_ _'_p_o_s_'_:_ _'_V_B_G_'_}_]"
sg16
(lp57
I1
aI0
aI3
aI2
asg18
I0
sg19
(dsg20
I1
sg21
(lp58
(I0
I1
S"{'nodeType': 'VerbChunk', 'eventStatus': '1'}"
ta(I1
I2
S"{'nodeType': 'VerbChunk', 'eventStatus': '1', 'pos': 'VBG'}"
ta(I1
I3
S"{'nodeType': 'Token', 'pos': ['JJ', 'RB']}"
ta(I3
I2
S"{'nodeType': 'VerbChunk', 'eventStatus': '1', 'pos': 'VBG'}"
tasg23
I1
sg24
I1
sba(iFSA
FSA
p59
(dp60
g9
S'relClauseRestrictive'
p61
sg11
(lp62
I3
asg13
Nsg14
I1
sg15
S"[_{_'_n_o_d_e_T_y_p_e_'_:_ _'_V_e_r_b_C_h_u_n_k_'_,_ _'_e_v_e_n_t_S_t_a_t_u_s_'_:_ _'_1_'_}_,_ _{_'_n_o_d_e_T_y_p_e_'_:_ _'_T_o_k_e_n_'_,_ _'_p_o_s_'_:_ _[_'_W_P_'_,_ _'_W_D_T_'_,_ _'_W_R_B_'_]_}_,_ _{_'_n_o_d_e_T_y_p_e_'_:_ _'_N_o_u_n_C_h_u_n_k_'_,_ _'_e_v_e_n_t_S_t_a_t_u_s_'_:_ _'_1_'_}_]"
sg16
(lp63
I1
aI0
aI3
aI2
asg18
I0
sg19
(dsg20
I1
sg21
(lp64
(I0
I1
S"{'nodeType': 'VerbChunk', 'eventStatus': '1'}"
ta(I1
I2
S"{'nodeType': 'Token', 'pos': ['WP', 'WDT', 'WRB']}"
ta(I2
I3
S"{'nodeType': 'NounChunk', 'eventStatus': '1'}"
tasg23
I1
sg24
I1
sba(iFSA
FSA
p65
(dp66
g9
S'relClauseRestrictivePerfective'
p67
sg11
(lp68
I3
asg13
Nsg14
I1
sg15
S"[_{_'_e_v_e_n_t_S_t_a_t_u_s_'_:_ _'_1_'_,_ _'_a_s_p_e_c_t_'_:_ _'_P_E_R_F_E_C_T_I_V_E_'_}_,_ _{_'_n_o_d_e_T_y_p_e_'_:_ _'_T_o_k_e_n_'_,_ _'_p_o_s_'_:_ _[_'_W_P_'_,_ _'_W_D_T_'_,_ _'_W_R_B_'_]_}_,_ _{_'_n_o_d_e_T_y_p_e_'_:_ _'_N_o_u_n_C_h_u_n_k_'_,_ _'_e_v_e_n_t_S_t_a_t_u_s_'_:_ _'_1_'_}_]"
sg16
(lp69
I1
aI0
aI3
aI2
asg18
I0
sg19
(dsg20
I1
sg21
(lp70
(I0
I1
S"{'eventStatus': '1', 'aspect': 'PERFECTIVE'}"
ta(I1
I2
S"{'nodeType': 'Token', 'pos': ['WP', 'WDT', 'WRB']}"
ta(I2
I3
S"{'nodeType': 'NounChunk', 'eventStatus': '1'}"
tasg23
I1
sg24
I1
sbaa(lp71
g43
atssS'ending'
p72
(dp73
g4
((lp74
(lp75
g7
ag25
aa(lp76
g43
atsg44
((lp77
(lp78
g47
ag53
ag59
ag65
aa(lp79
g43
atssS'ended'
p80
(dp81
g4
((lp82
(lp83
g7
ag25
aa(lp84
g43
atsg44
((lp85
(lp86
g47
ag53
ag59
ag65
a(iFSA
FSA
p87
(dp88
g9
S'passive1'
p89
sg11
(lp90
I2
asg13
Nsg14
I1
sg15
S"[_{_'_n_o_d_e_T_y_p_e_'_:_ _'_V_e_r_b_C_h_u_n_k_'_,_ _'_e_v_e_n_t_S_t_a_t_u_s_'_:_ _'_1_'_,_ _'_p_o_s_'_:_ _'_V_B_N_'_}_,_ _{_'_n_o_d_e_T_y_p_e_'_:_ _'_N_o_u_n_C_h_u_n_k_'_,_ _'_e_v_e_n_t_S_t_a_t_u_s_'_:_ _'_1_'_}_]"
sg16
(lp91
I1
aI0
aI2
asg18
I0
sg19
(dsg20
I1
sg21
(lp92
(I0
I1
S"{'nodeType': 'VerbChunk', 'eventStatus': '1', 'pos': 'VBN'}"
ta(I1
I2
S"{'nodeType': 'NounChunk', 'eventStatus': '1'}"
tasg23
I1
sg24
I1
sbaa(lp93
g43
atssS'begun'
p94
(dp95
g4
((lp96
(lp97
(iFSA
FSA
p98
(dp99
g9
S'IngClause'
p100
sg11
(lp101
I2
asg13
Nsg14
I1
sg15
S"[_{_'_n_o_d_e_T_y_p_e_'_:_ _'_T_o_k_e_n_'_,_ _'_p_o_s_'_:_ _'_P_D_T_'_}_,_ _'_?_'_,_ _{_'_n_o_d_e_T_y_p_e_'_:_ _'_N_o_u_n_C_h_u_n_k_'_}_,_ _'_?_'_,_ _{_'_n_o_d_e_T_y_p_e_'_:_ _'_V_e_r_b_C_h_u_n_k_'_,_ _'_e_v_e_n_t_S_t_a_t_u_s_'_:_ _'_1_'_,_ _'_p_o_s_'_:_ _'_V_B_G_'_}_]"
sg16
(lp102
I1
aI0
aI3
aI2
asg18
I0
sg19
(dsg20
I1
sg21
(lp103
(I0
I1
S"{'nodeType': 'NounChunk'}"
ta(I0
I2
S"{'nodeType': 'VerbChunk', 'eventStatus': '1', 'pos': 'VBG'}"
ta(I0
I3
S"{'nodeType': 'Token', 'pos': 'PDT'}"
ta(I1
I2
S"{'nodeType': 'VerbChunk', 'eventStatus': '1', 'pos': 'VBG'}"
ta(I3
I1
S"{'nodeType': 'NounChunk'}"
ta(I3
I2
S"{'nodeType': 'VerbChunk', 'eventStatus': '1', 'pos': 'VBG'}"
tasg23
I1
sg24
I1
sba(iFSA
FSA
p104
(dp105
g9
S'toClause1'
p106
sg11
(lp107
I1
asg13
Nsg14
I1
sg15
S"[_{_'_p_o_s_'_:_ _[_'_R_B_'_,_ _'_R_B_R_'_,_ _'_R_B_S_'_,_ _'_R_P_'_,_ _'_J_J_R_'_]_}_,_ _'_?_'_,_ _'_(_'_,_ _{_'_t_e_n_s_e_'_:_ _'_I_N_F_I_N_I_T_I_V_E_'_,_ _'_n_o_d_e_T_y_p_e_'_:_ _'_V_e_r_b_C_h_u_n_k_'_}_,_ _'_|_'_,_ _{_'_t_e_x_t_'_:_ _'_t_o_'_,_ _'_p_o_s_'_:_ _'_T_O_'_}_,_ _{_'_p_o_s_'_:_ _'_U_H_'_}_,_ _'_?_'_,_ _'_(_'_,_ _{_'_n_o_d_e_T_y_p_e_'_:_ _'_V_e_r_b_C_h_u_n_k_'_,_ _'_e_v_e_n_t_S_t_a_t_u_s_'_:_ _'_1_'_}_,_ _'_|_'_,_ _{_'_n_o_d_e_T_y_p_e_'_:_ _'_N_o_u_n_C_h_u_n_k_'_,_ _'_e_v_e_n_t_S_t_a_t_u_s_'_:_ _'_1_'_}_,_ _'_)_'_,_ _'_)_'_]"
sg16
(lp108
I0
aI2
aI4
aI3
aI1
asg18
I0
sg19
(dsg20
I1
sg21
(lp109
(I0
I1
S"{'tense': 'INFINITIVE', 'nodeType': 'VerbChunk'}"
ta(I0
I2
S"{'pos': ['RB', 'RBR', 'RBS', 'RP', 'JJR']}"
ta(I0
I3
S"{'text': 'to', 'pos': 'TO'}"
ta(I2
I1
S"{'tense': 'INFINITIVE', 'nodeType': 'VerbChunk'}"
ta(I2
I3
S"{'text': 'to', 'pos': 'TO'}"
ta(I3
I1
S"{'nodeType': 'NounChunk', 'eventStatus': '1'}"
ta(I3
I1
S"{'nodeType': 'VerbChunk', 'eventStatus': '1'}"
ta(I3
I4
S"{'pos': 'UH'}"
ta(I4
I1
S"{'nodeType': 'NounChunk', 'eventStatus': '1'}"
ta(I4
I1
S"{'nodeType': 'VerbChunk', 'eventStatus': '1'}"
tasg23
I1
sg24
I1
sba(iFSA
FSA
p110
(dp111
g9
S'toClause5'
p112
sg11
(lp113
I6
asg13
Nsg14
I1
sg15
S"[_{_'_n_o_d_e_T_y_p_e_'_:_ _'_T_o_k_e_n_'_,_ _'_p_o_s_'_:_ _'_I_N_'_}_,_ _{_'_n_o_d_e_T_y_p_e_'_:_ _'_T_o_k_e_n_'_,_ _'_p_o_s_'_:_ _'_P_D_T_'_}_,_ _'_?_'_,_ _{_'_n_o_d_e_T_y_p_e_'_:_ _'_N_o_u_n_C_h_u_n_k_'_}_,_ _{_'_n_o_d_e_T_y_p_e_'_:_ _'_T_o_k_e_n_'_,_ _'_p_o_s_'_:_ _'_I_N_'_}_,_ _'_?_'_,_ _{_'_n_o_d_e_T_y_p_e_'_:_ _'_T_o_k_e_n_'_,_ _'_p_o_s_'_:_ _'_P_D_T_'_}_,_ _'_?_'_,_ _{_'_n_o_d_e_T_y_p_e_'_:_ _'_N_o_u_n_C_h_u_n_k_'_}_,_ _'_?_'_,_ _'_(_'_,_ _{_'_t_e_n_s_e_'_:_ _'_I_N_F_I_N_I_T_I_V_E_'_,_ _'_n_o_d_e_T_y_p_e_'_:_ _'_V_e_r_b_C_h_u_n_k_'_}_,_ _'_|_'_,_ _{_'_t_e_x_t_'_:_ _'_t_o_'_,_ _'_p_o_s_'_:_ _'_T_O_'_}_,_ _{_'_p_o_s_'_:_ _'_U_H_'_}_,_ _'_?_'_,_ _'_(_'_,_ _{_'_n_o_d_e_T_y_p_e_'_:_ _'_V_e_r_b_C_h_u_n_k_'_,_ _'_e_v_e_n_t_S_t_a_t_u_s_'_:_ _'_1_'_}_,_ _'_|_'_,_ _{_'_n_o_d_e_T_y_p_e_'_:_ _'_N_o_u_n_C_h_u_n_k_'_,_ _'_e_v_e_n_t_S_t_a_t_u_s_'_:_ _'_1_'_}_,_ _'_)_'_,_ _'_)_'_]"
sg16
(lp114
I8
aI9
aI6
aI1
aI0
aI3
aI2
aI4
aI7
aI5
asg18
I0
sg19
(dsg20
I1
sg21
(lp115
(I0
I1
S"{'nodeType': 'Token', 'pos': 'IN'}"
ta(I1
I2
S"{'nodeType': 'NounChunk'}"
ta(I1
I3
S"{'nodeType': 'Token', 'pos': 'PDT'}"
ta(I2
I4
S"{'nodeType': 'NounChunk'}"
ta(I2
I5
S"{'text': 'to', 'pos': 'TO'}"
ta(I2
I6
S"{'tense': 'INFINITIVE', 'nodeType': 'VerbChunk'}"
ta(I2
I7
S"{'nodeType': 'Token', 'pos': 'PDT'}"
ta(I2
I8
S"{'nodeType': 'Token', 'pos': 'IN'}"
ta(I3
I2
S"{'nodeType': 'NounChunk'}"
ta(I4
I6
S"{'tense': 'INFINITIVE', 'nodeType': 'VerbChunk'}"
ta(I4
I5
S"{'text': 'to', 'pos': 'TO'}"
ta(I5
I6
S"{'nodeType': 'NounChunk', 'eventStatus': '1'}"
ta(I5
I6
S"{'nodeType': 'VerbChunk', 'eventStatus': '1'}"
ta(I5
I9
S"{'pos': 'UH'}"
ta(I7
I4
S"{'nodeType': 'NounChunk'}"
ta(I7
I6
S"{'tense': 'INFINITIVE', 'nodeType': 'VerbChunk'}"
ta(I7
I5
S"{'text': 'to', 'pos': 'TO'}"
ta(I8
I4
S"{'nodeType': 'NounChunk'}"
ta(I8
I6
S"{'tense': 'INFINITIVE', 'nodeType': 'VerbChunk'}"
ta(I8
I7
S"{'nodeType': 'Token', 'pos': 'PDT'}"
ta(I8
I5
S"{'text': 'to', 'pos': 'TO'}"
ta(I9
I6
S"{'nodeType': 'NounChunk', 'eventStatus': '1'}"
ta(I9
I6
S"{'nodeType': 'VerbChunk', 'eventStatus': '1'}"
tasg23
I1
sg24
I1
sbaa(lp116
g7
ag25
aa(lp117
g32
ag32
atsg44
((lp118
(lp119
g47
ag53
ag59
ag65
ag87
aa(lp120
g32
atssS'stoping'
p121
(dp122
g4
((lp123
(lp124
g7
ag25
ag98
aa(lp125
g43
atssS'close'
p126
(dp127
g4
((lp128
(lp129
g7
ag25
aa(lp130
g43
atssS'open'
p131
(dp132
g4
((lp133
(lp134
g7
ag25
aa(lp135
g32
atsg44
((lp136
(lp137
g47
ag53
aa(lp138
g32
atssS'closing'
p139
(dp140
g4
((lp141
(lp142
g7
ag25
aa(lp143
g43
atssS'finishes'
p144
(dp145
g4
((lp146
(lp147
g7
ag25
ag98
aa(lp148
S'CULMINATES'
p149
atsg44
((lp150
(lp151
g47
ag53
aa(lp152
g149
atssS'closes'
p153
(dp154
g4
((lp155
(lp156
g7
ag25
aa(lp157
g43
atssS'enters'
p158
(dp159
g4
((lp160
(lp161
g7
ag25
aa(lp162
g32
atssS'end'
p163
(dp164
g4
((lp165
(lp166
g7
ag25
aa(lp167
g43
atsg44
((lp168
(lp169
g47
ag53
ag59
ag65
aa(lp170
g43
atssS'opened'
p171
(dp172
g4
((lp173
(lp174
g7
ag25
aa(lp175
g32
atsg44
((lp176
(lp177
g47
ag53
aa(lp178
g32
atssS'remains'
p179
(dp180
g4
((lp181
(lp182
g98
a(iFSA
FSA
p183
(dp184
g9
S'objectCompl_pastPart'
p185
sg11
(lp186
I4
asg13
Nsg14
I1
sg15
S"[_'_(_'_,_ _{_'_n_o_d_e_T_y_p_e_'_:_ _'_T_o_k_e_n_'_,_ _'_p_o_s_'_:_ _'_P_D_T_'_}_,_ _'_|_'_,_ _{_'_n_o_d_e_T_y_p_e_'_:_ _'_T_o_k_e_n_'_,_ _'_p_o_s_'_:_ _'_D_T_'_}_,_ _{_'_n_o_d_e_T_y_p_e_'_:_ _'_T_o_k_e_n_'_,_ _'_p_o_s_'_:_ _'_I_N_'_}_,_ _'_)_'_,_ _'_?_'_,_ _'_(_'_,_ _{_'_n_o_d_e_T_y_p_e_'_:_ _'_N_o_u_n_C_h_u_n_k_'_}_,_ _'_(_'_,_ _{_'_n_o_d_e_T_y_p_e_'_:_ _'_T_o_k_e_n_'_,_ _'_p_o_s_'_:_ _'_I_N_'_}_,_ _'_|_'_,_ _{_'_t_e_x_t_'_:_ _[_'_a_n_d_'_,_ _'_o_r_'_]_,_ _'_n_o_d_e_T_y_p_e_'_:_ _'_T_o_k_e_n_'_,_ _'_p_o_s_'_:_ _'_C_C_'_}_,_ _'_)_'_,_ _{_'_n_o_d_e_T_y_p_e_'_:_ _'_N_o_u_n_C_h_u_n_k_'_}_,_ _'_(_'_,_ _{_'_n_o_d_e_T_y_p_e_'_:_ _'_T_o_k_e_n_'_,_ _'_p_o_s_'_:_ _'_I_N_'_}_,_ _{_'_n_o_d_e_T_y_p_e_'_:_ _'_N_o_u_n_C_h_u_n_k_'_}_,_ _'_)_'_,_ _'_?_'_,_ _'_|_'_,_ _'_(_'_,_ _{_'_n_o_d_e_T_y_p_e_'_:_ _'_T_o_k_e_n_'_,_ _'_p_o_s_'_:_ _[_'_P_P_'_,_ _'_P_P_$_'_,_ _'_P_R_P_$_'_,_ _'_P_R_P_'_]_}_,_ _'_|_'_,_ _{_'_n_o_d_e_T_y_p_e_'_:_ _'_N_o_u_n_C_h_u_n_k_'_}_,_ _'_)_'_,_ _'_|_'_,_ _{_'_t_e_x_t_'_:_ _[_'_t_h_i_s_'_,_ _'_t_h_a_t_'_,_ _'_t_h_e_s_e_'_,_ _'_t_h_o_s_e_'_]_,_ _'_n_o_d_e_T_y_p_e_'_:_ _'_T_o_k_e_n_'_}_,_ _'_|_'_,_ _{_'_n_o_d_e_T_y_p_e_'_:_ _'_T_o_k_e_n_'_,_ _'_p_o_s_'_:_ _'_D_T_'_}_,_ _'_(_'_,_ _{_'_n_o_d_e_T_y_p_e_'_:_ _'_T_o_k_e_n_'_,_ _'_p_o_s_'_:_ _[_'_J_J_'_,_ _'_J_J_R_'_,_ _'_J_J_S_'_]_}_,_ _'_|_'_,_ _{_'_p_o_s_'_:_ _'_S_Y_M_'_}_,_ _'_)_'_,_ _'_*_'_,_ _{_'_n_o_d_e_T_y_p_e_'_:_ _'_T_o_k_e_n_'_,_ _'_p_o_s_'_:_ _'_C_D_'_}_,_ _'_*_'_,_ _'_(_'_,_ _{_'_n_o_d_e_T_y_p_e_'_:_ _'_N_o_u_n_C_h_u_n_k_'_}_,_ _'_|_'_,_ _{_'_n_o_d_e_T_y_p_e_'_:_ _'_N_o_u_n_C_h_u_n_k_'_}_,_ _'_(_'_,_ _{_'_n_o_d_e_T_y_p_e_'_:_ _'_T_o_k_e_n_'_,_ _'_p_o_s_'_:_ _'_I_N_'_}_,_ _'_|_'_,_ _{_'_t_e_x_t_'_:_ _[_'_a_n_d_'_,_ _'_o_r_'_]_,_ _'_n_o_d_e_T_y_p_e_'_:_ _'_T_o_k_e_n_'_,_ _'_p_o_s_'_:_ _'_C_C_'_}_,_ _'_)_'_,_ _{_'_n_o_d_e_T_y_p_e_'_:_ _'_N_o_u_n_C_h_u_n_k_'_}_,_ _'_)_'_,_ _'_)_'_,_ _'_?_'_,_ _{_'_n_o_d_e_T_y_p_e_'_:_ _'_V_e_r_b_C_h_u_n_k_'_,_ _'_e_v_e_n_t_S_t_a_t_u_s_'_:_ _'_1_'_,_ _'_p_o_s_'_:_ _'_V_B_N_'_}_]"
sg16
(lp187
I4
aI2
aI5
aI1
aI0
aI3
aI9
aI6
aI7
aI11
aI8
aI10
asg18
I0
sg19
(dsg20
I1
sg21
(lp188
(I0
I1
S"{'nodeType': 'NounChunk'}"
ta(I0
I2
S"{'nodeType': 'Token', 'pos': ['PP', 'PP$', 'PRP$', 'PRP']}"
ta(I0
I2
S"{'text': ['this', 'that', 'these', 'those'], 'nodeType': 'Token'}"
ta(I0
I3
S"{'nodeType': 'Token', 'pos': 'DT'}"
ta(I0
I4
S"{'nodeType': 'VerbChunk', 'eventStatus': '1', 'pos': 'VBN'}"
ta(I0
I5
S"{'nodeType': 'Token', 'pos': 'PDT'}"
ta(I1
I4
S"{'nodeType': 'VerbChunk', 'eventStatus': '1', 'pos': 'VBN'}"
ta(I1
I6
S"{'nodeType': 'Token', 'pos': 'IN'}"
ta(I1
I6
S"{'text': ['and', 'or'], 'nodeType': 'Token', 'pos': 'CC'}"
ta(I2
I4
S"{'nodeType': 'VerbChunk', 'eventStatus': '1', 'pos': 'VBN'}"
ta(I3
I7
S"{'nodeType': 'NounChunk'}"
ta(I3
I5
S"{'nodeType': 'Token', 'pos': 'IN'}"
ta(I3
I8
S"{'nodeType': 'Token', 'pos': ['JJ', 'JJR', 'JJS']}"
ta(I3
I8
S"{'pos': 'SYM'}"
ta(I3
I9
S"{'nodeType': 'Token', 'pos': 'CD'}"
ta(I5
I1
S"{'nodeType': 'NounChunk'}"
ta(I5
I2
S"{'nodeType': 'Token', 'pos': ['PP', 'PP$', 'PRP$', 'PRP']}"
ta(I5
I2
S"{'text': ['this', 'that', 'these', 'those'], 'nodeType': 'Token'}"
ta(I5
I4
S"{'nodeType': 'VerbChunk', 'eventStatus': '1', 'pos': 'VBN'}"
ta(I5
I8
S"{'nodeType': 'Token', 'pos': 'DT'}"
ta(I6
I10
S"{'nodeType': 'NounChunk'}"
ta(I7
I4
S"{'nodeType': 'VerbChunk', 'eventStatus': '1', 'pos': 'VBN'}"
ta(I7
I11
S"{'nodeType': 'Token', 'pos': 'IN'}"
ta(I7
I11
S"{'text': ['and', 'or'], 'nodeType': 'Token', 'pos': 'CC'}"
ta(I8
I7
S"{'nodeType': 'NounChunk'}"
ta(I8
I8
S"{'nodeType': 'Token', 'pos': ['JJ', 'JJR', 'JJS']}"
ta(I8
I8
S"{'pos': 'SYM'}"
ta(I8
I9
S"{'nodeType': 'Token', 'pos': 'CD'}"
ta(I9
I7
S"{'nodeType': 'NounChunk'}"
ta(I9
I9
S"{'nodeType': 'Token', 'pos': 'CD'}"
ta(I10
I4
S"{'nodeType': 'VerbChunk', 'eventStatus': '1', 'pos': 'VBN'}"
ta(I10
I11
S"{'nodeType': 'Token', 'pos': 'IN'}"
ta(I11
I2
S"{'nodeType': 'NounChunk'}"
tasg23
I1
sg24
I1
sba(iFSA
FSA
p189
(dp190
g9
S'objectCompl_adj'
p191
sg11
(lp192
I5
asg13
Nsg14
I1
sg15
S"[_'_(_'_,_ _{_'_n_o_d_e_T_y_p_e_'_:_ _'_T_o_k_e_n_'_,_ _'_p_o_s_'_:_ _'_P_D_T_'_}_,_ _'_|_'_,_ _{_'_n_o_d_e_T_y_p_e_'_:_ _'_T_o_k_e_n_'_,_ _'_p_o_s_'_:_ _'_D_T_'_}_,_ _{_'_n_o_d_e_T_y_p_e_'_:_ _'_T_o_k_e_n_'_,_ _'_p_o_s_'_:_ _'_I_N_'_}_,_ _'_)_'_,_ _'_?_'_,_ _'_(_'_,_ _{_'_n_o_d_e_T_y_p_e_'_:_ _'_N_o_u_n_C_h_u_n_k_'_}_,_ _'_(_'_,_ _{_'_n_o_d_e_T_y_p_e_'_:_ _'_T_o_k_e_n_'_,_ _'_p_o_s_'_:_ _'_I_N_'_}_,_ _'_|_'_,_ _{_'_t_e_x_t_'_:_ _[_'_a_n_d_'_,_ _'_o_r_'_]_,_ _'_n_o_d_e_T_y_p_e_'_:_ _'_T_o_k_e_n_'_,_ _'_p_o_s_'_:_ _'_C_C_'_}_,_ _'_)_'_,_ _{_'_n_o_d_e_T_y_p_e_'_:_ _'_N_o_u_n_C_h_u_n_k_'_}_,_ _'_(_'_,_ _{_'_n_o_d_e_T_y_p_e_'_:_ _'_T_o_k_e_n_'_,_ _'_p_o_s_'_:_ _'_I_N_'_}_,_ _{_'_n_o_d_e_T_y_p_e_'_:_ _'_N_o_u_n_C_h_u_n_k_'_}_,_ _'_)_'_,_ _'_?_'_,_ _'_|_'_,_ _'_(_'_,_ _{_'_n_o_d_e_T_y_p_e_'_:_ _'_T_o_k_e_n_'_,_ _'_p_o_s_'_:_ _[_'_P_P_'_,_ _'_P_P_$_'_,_ _'_P_R_P_$_'_,_ _'_P_R_P_'_]_}_,_ _'_|_'_,_ _{_'_n_o_d_e_T_y_p_e_'_:_ _'_N_o_u_n_C_h_u_n_k_'_}_,_ _'_)_'_,_ _'_|_'_,_ _{_'_t_e_x_t_'_:_ _[_'_t_h_i_s_'_,_ _'_t_h_a_t_'_,_ _'_t_h_e_s_e_'_,_ _'_t_h_o_s_e_'_]_,_ _'_n_o_d_e_T_y_p_e_'_:_ _'_T_o_k_e_n_'_}_,_ _'_|_'_,_ _{_'_n_o_d_e_T_y_p_e_'_:_ _'_T_o_k_e_n_'_,_ _'_p_o_s_'_:_ _'_D_T_'_}_,_ _'_(_'_,_ _{_'_n_o_d_e_T_y_p_e_'_:_ _'_T_o_k_e_n_'_,_ _'_p_o_s_'_:_ _[_'_J_J_'_,_ _'_J_J_R_'_,_ _'_J_J_S_'_]_}_,_ _'_|_'_,_ _{_'_p_o_s_'_:_ _'_S_Y_M_'_}_,_ _'_)_'_,_ _'_*_'_,_ _{_'_n_o_d_e_T_y_p_e_'_:_ _'_T_o_k_e_n_'_,_ _'_p_o_s_'_:_ _'_C_D_'_}_,_ _'_*_'_,_ _'_(_'_,_ _{_'_n_o_d_e_T_y_p_e_'_:_ _'_N_o_u_n_C_h_u_n_k_'_}_,_ _'_|_'_,_ _{_'_n_o_d_e_T_y_p_e_'_:_ _'_N_o_u_n_C_h_u_n_k_'_}_,_ _'_(_'_,_ _{_'_n_o_d_e_T_y_p_e_'_:_ _'_T_o_k_e_n_'_,_ _'_p_o_s_'_:_ _'_I_N_'_}_,_ _'_|_'_,_ _{_'_t_e_x_t_'_:_ _[_'_a_n_d_'_,_ _'_o_r_'_]_,_ _'_n_o_d_e_T_y_p_e_'_:_ _'_T_o_k_e_n_'_,_ _'_p_o_s_'_:_ _'_C_C_'_}_,_ _'_)_'_,_ _{_'_n_o_d_e_T_y_p_e_'_:_ _'_N_o_u_n_C_h_u_n_k_'_}_,_ _'_)_'_,_ _'_)_'_,_ _'_?_'_,_ _{_'_n_o_d_e_T_y_p_e_'_:_ _'_A_d_j_e_c_t_i_v_e_T_o_k_e_n_'_,_ _'_e_v_e_n_t_S_t_a_t_u_s_'_:_ _'_1_'_}_]"
sg16
(lp193
I2
aI1
aI0
aI3
aI9
aI11
aI6
aI7
aI4
aI5
aI8
aI10
asg18
I0
sg19
(dsg20
I1
sg21
(lp194
(I0
I1
S"{'nodeType': 'NounChunk'}"
ta(I0
I2
S"{'nodeType': 'Token', 'pos': ['PP', 'PP$', 'PRP$', 'PRP']}"
ta(I0
I2
S"{'text': ['this', 'that', 'these', 'those'], 'nodeType': 'Token'}"
ta(I0
I3
S"{'nodeType': 'Token', 'pos': 'DT'}"
ta(I0
I4
S"{'nodeType': 'Token', 'pos': 'PDT'}"
ta(I0
I5
S"{'nodeType': 'AdjectiveToken', 'eventStatus': '1'}"
ta(I1
I6
S"{'nodeType': 'Token', 'pos': 'IN'}"
ta(I1
I6
S"{'text': ['and', 'or'], 'nodeType': 'Token', 'pos': 'CC'}"
ta(I1
I5
S"{'nodeType': 'AdjectiveToken', 'eventStatus': '1'}"
ta(I2
I5
S"{'nodeType': 'AdjectiveToken', 'eventStatus': '1'}"
ta(I3
I7
S"{'nodeType': 'NounChunk'}"
ta(I3
I4
S"{'nodeType': 'Token', 'pos': 'IN'}"
ta(I3
I8
S"{'nodeType': 'Token', 'pos': ['JJ', 'JJR', 'JJS']}"
ta(I3
I8
S"{'pos': 'SYM'}"
ta(I3
I9
S"{'nodeType': 'Token', 'pos': 'CD'}"
ta(I4
I1
S"{'nodeType': 'NounChunk'}"
ta(I4
I2
S"{'nodeType': 'Token', 'pos': ['PP', 'PP$', 'PRP$', 'PRP']}"
ta(I4
I2
S"{'text': ['this', 'that', 'these', 'those'], 'nodeType': 'Token'}"
ta(I4
I5
S"{'nodeType': 'AdjectiveToken', 'eventStatus': '1'}"
ta(I4
I8
S"{'nodeType': 'Token', 'pos': 'DT'}"
ta(I6
I10
S"{'nodeType': 'NounChunk'}"
ta(I7
I11
S"{'nodeType': 'Token', 'pos': 'IN'}"
ta(I7
I11
S"{'text': ['and', 'or'], 'nodeType': 'Token', 'pos': 'CC'}"
ta(I7
I5
S"{'nodeType': 'AdjectiveToken', 'eventStatus': '1'}"
ta(I8
I7
S"{'nodeType': 'NounChunk'}"
ta(I8
I8
S"{'nodeType': 'Token', 'pos': ['JJ', 'JJR', 'JJS']}"
ta(I8
I8
S"{'pos': 'SYM'}"
ta(I8
I9
S"{'nodeType': 'Token', 'pos': 'CD'}"
ta(I9
I7
S"{'nodeType': 'NounChunk'}"
ta(I9
I9
S"{'nodeType': 'Token', 'pos': 'CD'}"
ta(I10
I11
S"{'nodeType': 'Token', 'pos': 'IN'}"
ta(I10
I5
S"{'nodeType': 'AdjectiveToken', 'eventStatus': '1'}"
ta(I11
I2
S"{'nodeType': 'NounChunk'}"
tasg23
I1
sg24
I1
sbaa(lp195
S'CONTINUES'
p196
atsg44
((lp197
(lp198
g53
ag53
aa(lp199
g196
atssS'beginning'
p200
(dp201
g4
((lp202
(lp203
g98
ag104
ag110
aa(lp204
g7
ag25
aa(lp205
g32
ag32
atsg44
((lp206
(lp207
g47
ag53
ag59
ag65
aa(lp208
g32
atssS'began'
p209
(dp210
g4
((lp211
(lp212
g98
ag104
ag110
aa(lp213
g7
ag25
aa(lp214
g32
ag32
atsg44
((lp215
(lp216
g47
ag53
ag59
ag65
aa(lp217
g32
atssS'breaking'
p218
(dp219
g4
((lp220
(lp221
g7
ag25
aa(lp222
g43
atsg44
((lp223
(lp224
g47
ag53
ag59
ag65
aa(lp225
g43
atssS'renew'
p226
(dp227
g4
((lp228
(lp229
g7
ag25
ag98
aa(lp230
S'REINITIATES'
p231
atsg44
((lp232
(lp233
g47
ag53
aa(lp234
g231
atssS'stops'
p235
(dp236
g4
((lp237
(lp238
g7
ag25
ag98
aa(lp239
g43
atsg44
((lp240
(lp241
g47
ag53
ag59
ag65
aa(lp242
g43
atssS'start'
p243
(dp244
g4
((lp245
(lp246
g7
ag25
ag98
aa(lp247
g32
atsg44
((lp248
(lp249
g47
ag53
ag59
ag65
aa(lp250
g32
atssS'remained'
p251
(dp252
g4
((lp253
(lp254
g98
ag183
ag189
aa(lp255
g196
atsg44
((lp256
(lp257
g53
ag53
ag59
ag65
ag87
aa(lp258
g196
atssS'closed'
p259
(dp260
g4
((lp261
(lp262
g7
ag25
aa(lp263
g43
atssS'stopped'
p264
(dp265
g4
((lp266
(lp267
g7
ag25
ag98
aa(lp268
g43
atsg44
((lp269
(lp270
g47
ag53
ag59
ag65
ag87
aa(lp271
g43
atssS'entered'
p272
(dp273
g4
((lp274
(lp275
g7
ag25
aa(lp276
g32
atsg44
((lp277
(lp278
g47
ag53
ag59
ag65
ag87
aa(lp279
g32
atssS'breaks'
p280
(dp281
g4
((lp282
(lp283
g7
ag25
aa(lp284
g43
atsg44
((lp285
(lp286
g47
ag53
ag59
ag65
aa(lp287
g43
atssS'launching'
p288
(dp289
g4
((lp290
(lp291
g7
ag25
aa(lp292
g32
atssS'resumed'
p293
(dp294
g4
((lp295
(lp296
g7
ag25
ag98
aa(lp297
g231
atsg44
((lp298
(lp299
g47
ag53
ag59
ag65
ag87
aa(lp300
g231
atssS'begin'
p301
(dp302
g4
((lp303
(lp304
g98
ag104
ag110
aa(lp305
g7
ag25
aa(lp306
g32
ag32
atsg44
((lp307
(lp308
g47
ag53
ag59
ag65
aa(lp309
g32
atssS'finish'
p310
(dp311
g4
((lp312
(lp313
g7
ag25
ag98
aa(lp314
g149
atsg44
((lp315
(lp316
g47
ag53
aa(lp317
g149
atssS'complete'
p318
(dp319
g4
((lp320
(lp321
g7
ag25
aa(lp322
g149
atsg44
((lp323
(lp324
g59
ag65
aa(lp325
g149
atssS'opening'
p326
(dp327
g4
((lp328
(lp329
g7
ag25
aa(lp330
g32
atsg44
((lp331
(lp332
g47
ag53
aa(lp333
g32
atssS'started'
p334
(dp335
g4
((lp336
(lp337
g7
ag25
ag98
aa(lp338
g32
atsg44
((lp339
(lp340
g47
ag53
ag59
ag65
ag87
aa(lp341
g32
atssS'stop'
p342
(dp343
g4
((lp344
(lp345
g7
ag25
ag98
aa(lp346
g43
atsg44
((lp347
(lp348
g47
ag53
ag59
ag65
aa(lp349
g43
atssS'completed'
p350
(dp351
g4
((lp352
(lp353
g7
ag25
aa(lp354
g149
atsg44
((lp355
(lp356
g47
ag53
ag59
ag65
ag87
aa(lp357
g149
atssS'continues'
p358
(dp359
g4
((lp360
(lp361
g98
ag104
ag110
a(iFSA
FSA
p362
(dp363
g9
S'toClause7'
p364
sg11
(lp365
I2
asg13
Nsg14
I1
sg15
S"[_{_'_n_o_d_e_T_y_p_e_'_:_ _'_V_e_r_b_C_h_u_n_k_'_,_ _'_e_v_e_n_t_S_t_a_t_u_s_'_:_ _(_'_^_'_,_ _'_1_'_)_}_,_ _'_(_'_,_ _{_'_n_o_d_e_T_y_p_e_'_:_ _'_A_d_j_e_c_t_i_v_e_T_o_k_e_n_'_,_ _'_e_v_e_n_t_S_t_a_t_u_s_'_:_ _'_1_'_}_,_ _'_|_'_,_ _{_'_n_o_d_e_T_y_p_e_'_:_ _'_N_o_u_n_C_h_u_n_k_'_,_ _'_e_v_e_n_t_S_t_a_t_u_s_'_:_ _'_1_'_}_,_ _'_)_'_]"
sg16
(lp366
I1
aI0
aI2
asg18
I0
sg19
(dsg20
I1
sg21
(lp367
(I0
I1
S"{'nodeType': 'VerbChunk', 'eventStatus': ('^', '1')}"
ta(I1
I2
S"{'nodeType': 'AdjectiveToken', 'eventStatus': '1'}"
ta(I1
I2
S"{'nodeType': 'NounChunk', 'eventStatus': '1'}"
tasg23
I1
sg24
I1
sbag7
ag25
ag183
ag189
aa(lp368
g196
atsg44
((lp369
(lp370
g47
ag53
ag59
ag65
aa(lp371
g196
atssS'continuing'
p372
(dp373
g4
((lp374
(lp375
g98
ag104
ag110
ag362
ag7
ag25
ag183
ag189
aa(lp376
g196
atsg44
((lp377
(lp378
g47
ag53
ag59
ag65
aa(lp379
g196
atssS'resumes'
p380
(dp381
g4
((lp382
(lp383
g7
ag25
ag98
aa(lp384
g231
atsg44
((lp385
(lp386
g47
ag53
aa(lp387
g231
atssS'break'
p388
(dp389
g4
((lp390
(lp391
g7
ag25
aa(lp392
g43
atsg44
((lp393
(lp394
g47
ag53
ag59
ag65
aa(lp395
g43
atssS'remaining'
p396
(dp397
g4
((lp398
(lp399
g98
ag183
ag189
aa(lp400
g196
atsg44
((lp401
(lp402
g53
ag53
aa(lp403
g196
atssS'finished'
p404
(dp405
g4
((lp406
(lp407
g7
ag25
ag98
aa(lp408
g149
atsg44
((lp409
(lp410
g47
ag53
ag59
ag65
ag87
aa(lp411
g149
atssS'renewed'
p412
(dp413
g4
((lp414
(lp415
g7
ag25
ag98
aa(lp416
g231
atsg44
((lp417
(lp418
g47
ag53
ag59
ag65
ag87
aa(lp419
g231
atssS'broke'
p420
(dp421
g4
((lp422
(lp423
g7
ag25
aa(lp424
g43
atsg44
((lp425
(lp426
g47
ag53
ag59
ag65
aa(lp427
g43
atssS'continued'
p428
(dp429
g4
((lp430
(lp431
g98
ag104
ag110
ag362
ag7
ag25
ag183
ag189
aa(lp432
g196
atsg44
((lp433
(lp434
g47
ag53
ag59
ag65
aa(lp435
g196
atssS'completes'
p436
(dp437
g4
((lp438
(lp439
g7
ag25
aa(lp440
g149
atsg44
((lp441
(lp442
g59
ag65
aa(lp443
g149
atssS'begins'
p444
(dp445
g4
((lp446
(lp447
g98
ag104
ag110
aa(lp448
g7
ag25
aa(lp449
g32
ag32
atsg44
((lp450
(lp451
g47
ag53
ag59
ag65
aa(lp452
g32
atssS'renews'
p453
(dp454
g4
((lp455
(lp456
g7
ag25
ag98
aa(lp457
g231
atsg44
((lp458
(lp459
g47
ag53
aa(lp460
g231
atssS'keeping'
p461
(dp462
g4
((lp463
(lp464
g98
ag183
ag189
aa(lp465
g196
atssS'kept'
p466
(dp467
g4
((lp468
(lp469
g98
ag183
ag189
aa(lp470
g196
atsg44
((lp471
(lp472
g53
ag53
ag59
ag65
ag87
aa(lp473
g196
atssS'launch'
p474
(dp475
g4
((lp476
(lp477
g7
ag25
aa(lp478
g32
atssS'launches'
p479
(dp480
g4
((lp481
(lp482
g7
ag25
aa(lp483
g32
atssS'completing'
p484
(dp485
g4
((lp486
(lp487
g7
ag25
aa(lp488
g149
atssS'starts'
p489
(dp490
g4
((lp491
(lp492
g7
ag25
ag98
aa(lp493
g32
atsg44
((lp494
(lp495
g47
ag53
ag59
ag65
aa(lp496
g32
atssS'resume'
p497
(dp498
g4
((lp499
(lp500
g7
ag25
ag98
aa(lp501
g231
atsg44
((lp502
(lp503
g47
ag53
aa(lp504
g231
atssS'keep'
p505
(dp506
g4
((lp507
(lp508
g98
ag183
ag189
aa(lp509
g196
atssS'renewing'
p510
(dp511
g4
((lp512
(lp513
g7
ag25
ag98
aa(lp514
g231
atssS'remain'
p515
(dp516
g4
((lp517
(lp518
g98
ag183
ag189
aa(lp519
g196
atsg44
((lp520
(lp521
g53
ag53
aa(lp522
g196
atssS'continue'
p523
(dp524
g4
((lp525
(lp526
g98
ag104
ag110
ag362
ag7
ag25
ag183
ag189
aa(lp527
g196
atsg44
((lp528
(lp529
g47
ag53
ag59
ag65
aa(lp530
g196
atssS'resuming'
p531
(dp532
g4
((lp533
(lp534
g7
ag25
ag98
aa(lp535
g231
atssS'opens'
p536
(dp537
g4
((lp538
(lp539
g7
ag25
aa(lp540
g32
atsg44
((lp541
(lp542
g47
ag53
ag59
ag65
aa(lp543
g32
atssS'keeps'
p544
(dp545
g4
((lp546
(lp547
g98
ag183
ag189
aa(lp548
g196
atssS'finishing'
p549
(dp550
g4
((lp551
(lp552
g7
ag25
ag98
aa(lp553
g149
atssS'starting'
p554
(dp555
g4
((lp556
(lp557
g7
ag25
ag98
aa(lp558
g32
atssS'launched'
p559
(dp560
g4
((lp561
(lp562
g7
ag25
aa(lp563
g32
atss.